
rts_net.elf:     file format elf32-avr

Sections:
Idx Name          Size      VMA       LMA       File off  Algn
  0 .text         00001504  00000000  00000000  000000b4  2**1
                  CONTENTS, ALLOC, LOAD, READONLY, CODE
  1 .data         00000272  00800060  00001504  000015b8  2**0
                  CONTENTS, ALLOC, LOAD, DATA
  2 .bss          00000188  008002d2  008002d2  0000182a  2**0
                  ALLOC
  3 .eeprom       00000002  00810000  00810000  0000182a  2**0
                  CONTENTS, ALLOC, LOAD, DATA
  4 .stab         00001350  00000000  00000000  0000182c  2**2
                  CONTENTS, READONLY, DEBUGGING
  5 .stabstr      000004c7  00000000  00000000  00002b7c  2**0
                  CONTENTS, READONLY, DEBUGGING
  6 .debug_aranges 00000060  00000000  00000000  00003043  2**0
                  CONTENTS, READONLY, DEBUGGING
  7 .debug_pubnames 00000059  00000000  00000000  000030a3  2**0
                  CONTENTS, READONLY, DEBUGGING
  8 .debug_info   0000066e  00000000  00000000  000030fc  2**0
                  CONTENTS, READONLY, DEBUGGING
  9 .debug_abbrev 00000335  00000000  00000000  0000376a  2**0
                  CONTENTS, READONLY, DEBUGGING
 10 .debug_line   00000943  00000000  00000000  00003a9f  2**0
                  CONTENTS, READONLY, DEBUGGING
 11 .debug_frame  00000060  00000000  00000000  000043e4  2**2
                  CONTENTS, READONLY, DEBUGGING
 12 .debug_str    000001e6  00000000  00000000  00004444  2**0
                  CONTENTS, READONLY, DEBUGGING
 13 .debug_loc    000006f1  00000000  00000000  0000462a  2**0
                  CONTENTS, READONLY, DEBUGGING
 14 .debug_pubtypes 000000c4  00000000  00000000  00004d1b  2**0
                  CONTENTS, READONLY, DEBUGGING
 15 .debug_ranges 00000048  00000000  00000000  00004ddf  2**0
                  CONTENTS, READONLY, DEBUGGING

Disassembly of section .text:

00000000 <__vectors>:
       0:	14 c0       	rjmp	.+40     	; 0x2a <__ctors_end>
       2:	4d c3       	rjmp	.+1690   	; 0x69e <__vector_1>
       4:	2d c0       	rjmp	.+90     	; 0x60 <__bad_interrupt>
       6:	2c c0       	rjmp	.+88     	; 0x60 <__bad_interrupt>
       8:	2b c0       	rjmp	.+86     	; 0x60 <__bad_interrupt>
       a:	2a c0       	rjmp	.+84     	; 0x60 <__bad_interrupt>
       c:	29 c0       	rjmp	.+82     	; 0x60 <__bad_interrupt>
       e:	28 c0       	rjmp	.+80     	; 0x60 <__bad_interrupt>
      10:	27 c0       	rjmp	.+78     	; 0x60 <__bad_interrupt>
      12:	26 c0       	rjmp	.+76     	; 0x60 <__bad_interrupt>
      14:	25 c0       	rjmp	.+74     	; 0x60 <__bad_interrupt>
      16:	35 c5       	rjmp	.+2666   	; 0xa82 <__vector_11>
      18:	f5 c4       	rjmp	.+2538   	; 0xa04 <__vector_12>
      1a:	22 c0       	rjmp	.+68     	; 0x60 <__bad_interrupt>
      1c:	21 c0       	rjmp	.+66     	; 0x60 <__bad_interrupt>
      1e:	20 c0       	rjmp	.+64     	; 0x60 <__bad_interrupt>
      20:	1f c0       	rjmp	.+62     	; 0x60 <__bad_interrupt>
      22:	1e c0       	rjmp	.+60     	; 0x60 <__bad_interrupt>
      24:	1d c0       	rjmp	.+58     	; 0x60 <__bad_interrupt>

00000026 <__c.1608>:
      26:	0d 0a 00 00                                         ....

0000002a <__ctors_end>:
      2a:	11 24       	eor	r1, r1
      2c:	1f be       	out	0x3f, r1	; 63
      2e:	cf e5       	ldi	r28, 0x5F	; 95
      30:	d4 e0       	ldi	r29, 0x04	; 4
      32:	de bf       	out	0x3e, r29	; 62
      34:	cd bf       	out	0x3d, r28	; 61

00000036 <__do_copy_data>:
      36:	12 e0       	ldi	r17, 0x02	; 2
      38:	a0 e6       	ldi	r26, 0x60	; 96
      3a:	b0 e0       	ldi	r27, 0x00	; 0
      3c:	e4 e0       	ldi	r30, 0x04	; 4
      3e:	f5 e1       	ldi	r31, 0x15	; 21
      40:	02 c0       	rjmp	.+4      	; 0x46 <__SREG__+0x7>
      42:	05 90       	lpm	r0, Z+
      44:	0d 92       	st	X+, r0
      46:	a2 3d       	cpi	r26, 0xD2	; 210
      48:	b1 07       	cpc	r27, r17
      4a:	d9 f7       	brne	.-10     	; 0x42 <__SREG__+0x3>

0000004c <__do_clear_bss>:
      4c:	14 e0       	ldi	r17, 0x04	; 4
      4e:	a2 ed       	ldi	r26, 0xD2	; 210
      50:	b2 e0       	ldi	r27, 0x02	; 2
      52:	01 c0       	rjmp	.+2      	; 0x56 <.do_clear_bss_start>

00000054 <.do_clear_bss_loop>:
      54:	1d 92       	st	X+, r1

00000056 <.do_clear_bss_start>:
      56:	aa 35       	cpi	r26, 0x5A	; 90
      58:	b1 07       	cpc	r27, r17
      5a:	e1 f7       	brne	.-8      	; 0x54 <.do_clear_bss_loop>
      5c:	b3 d4       	rcall	.+2406   	; 0x9c4 <main>
      5e:	50 ca       	rjmp	.-2912   	; 0xfffff500 <__eeprom_end+0xff7ef4fe>

00000060 <__bad_interrupt>:
      60:	cf cf       	rjmp	.-98     	; 0x0 <__vectors>

00000062 <rx_telegram>:
      62:	0f 93       	push	r16
      64:	1f 93       	push	r17
      66:	df 93       	push	r29
      68:	cf 93       	push	r28
      6a:	cd b7       	in	r28, 0x3d	; 61
      6c:	de b7       	in	r29, 0x3e	; 62
      6e:	c4 56       	subi	r28, 0x64	; 100
      70:	d0 40       	sbci	r29, 0x00	; 0
      72:	0f b6       	in	r0, 0x3f	; 63
      74:	f8 94       	cli
      76:	de bf       	out	0x3e, r29	; 62
      78:	0f be       	out	0x3f, r0	; 63
      7a:	cd bf       	out	0x3d, r28	; 61
      7c:	fc 01       	movw	r30, r24
      7e:	82 85       	ldd	r24, Z+10	; 0x0a
      80:	81 30       	cpi	r24, 0x01	; 1
      82:	21 f0       	breq	.+8      	; 0x8c <rx_telegram+0x2a>
      84:	82 30       	cpi	r24, 0x02	; 2
      86:	09 f0       	breq	.+2      	; 0x8a <rx_telegram+0x28>
      88:	5a c0       	rjmp	.+180    	; 0x13e <rx_telegram+0xdc>
      8a:	27 c0       	rjmp	.+78     	; 0xda <rx_telegram+0x78>
      8c:	00 d0       	rcall	.+0      	; 0x8e <rx_telegram+0x2c>
      8e:	00 d0       	rcall	.+0      	; 0x90 <rx_telegram+0x2e>
      90:	00 d0       	rcall	.+0      	; 0x92 <rx_telegram+0x30>
      92:	2d b7       	in	r18, 0x3d	; 61
      94:	3e b7       	in	r19, 0x3e	; 62
      96:	2f 5f       	subi	r18, 0xFF	; 255
      98:	3f 4f       	sbci	r19, 0xFF	; 255
      9a:	8e 01       	movw	r16, r28
      9c:	0f 5f       	subi	r16, 0xFF	; 255
      9e:	1f 4f       	sbci	r17, 0xFF	; 255
      a0:	ad b7       	in	r26, 0x3d	; 61
      a2:	be b7       	in	r27, 0x3e	; 62
      a4:	12 96       	adiw	r26, 0x02	; 2
      a6:	1c 93       	st	X, r17
      a8:	0e 93       	st	-X, r16
      aa:	11 97       	sbiw	r26, 0x01	; 1
      ac:	80 e6       	ldi	r24, 0x60	; 96
      ae:	90 e0       	ldi	r25, 0x00	; 0
      b0:	d9 01       	movw	r26, r18
      b2:	13 96       	adiw	r26, 0x03	; 3
      b4:	9c 93       	st	X, r25
      b6:	8e 93       	st	-X, r24
      b8:	12 97       	sbiw	r26, 0x02	; 2
      ba:	83 85       	ldd	r24, Z+11	; 0x0b
      bc:	94 85       	ldd	r25, Z+12	; 0x0c
      be:	15 96       	adiw	r26, 0x05	; 5
      c0:	9c 93       	st	X, r25
      c2:	8e 93       	st	-X, r24
      c4:	14 97       	sbiw	r26, 0x04	; 4
      c6:	28 d7       	rcall	.+3664   	; 0xf18 <sprintf>
      c8:	ed b7       	in	r30, 0x3d	; 61
      ca:	fe b7       	in	r31, 0x3e	; 62
      cc:	36 96       	adiw	r30, 0x06	; 6
      ce:	0f b6       	in	r0, 0x3f	; 63
      d0:	f8 94       	cli
      d2:	fe bf       	out	0x3e, r31	; 62
      d4:	0f be       	out	0x3f, r0	; 63
      d6:	ed bf       	out	0x3d, r30	; 61
      d8:	2e c0       	rjmp	.+92     	; 0x136 <rx_telegram+0xd4>
      da:	8d b7       	in	r24, 0x3d	; 61
      dc:	9e b7       	in	r25, 0x3e	; 62
      de:	08 97       	sbiw	r24, 0x08	; 8
      e0:	0f b6       	in	r0, 0x3f	; 63
      e2:	f8 94       	cli
      e4:	9e bf       	out	0x3e, r25	; 62
      e6:	0f be       	out	0x3f, r0	; 63
      e8:	8d bf       	out	0x3d, r24	; 61
      ea:	2d b7       	in	r18, 0x3d	; 61
      ec:	3e b7       	in	r19, 0x3e	; 62
      ee:	2f 5f       	subi	r18, 0xFF	; 255
      f0:	3f 4f       	sbci	r19, 0xFF	; 255
      f2:	8e 01       	movw	r16, r28
      f4:	0f 5f       	subi	r16, 0xFF	; 255
      f6:	1f 4f       	sbci	r17, 0xFF	; 255
      f8:	ad b7       	in	r26, 0x3d	; 61
      fa:	be b7       	in	r27, 0x3e	; 62
      fc:	12 96       	adiw	r26, 0x02	; 2
      fe:	1c 93       	st	X, r17
     100:	0e 93       	st	-X, r16
     102:	11 97       	sbiw	r26, 0x01	; 1
     104:	83 e7       	ldi	r24, 0x73	; 115
     106:	90 e0       	ldi	r25, 0x00	; 0
     108:	d9 01       	movw	r26, r18
     10a:	13 96       	adiw	r26, 0x03	; 3
     10c:	9c 93       	st	X, r25
     10e:	8e 93       	st	-X, r24
     110:	12 97       	sbiw	r26, 0x02	; 2
     112:	83 85       	ldd	r24, Z+11	; 0x0b
     114:	94 85       	ldd	r25, Z+12	; 0x0c
     116:	a5 85       	ldd	r26, Z+13	; 0x0d
     118:	b6 85       	ldd	r27, Z+14	; 0x0e
     11a:	f9 01       	movw	r30, r18
     11c:	84 83       	std	Z+4, r24	; 0x04
     11e:	95 83       	std	Z+5, r25	; 0x05
     120:	a6 83       	std	Z+6, r26	; 0x06
     122:	b7 83       	std	Z+7, r27	; 0x07
     124:	f9 d6       	rcall	.+3570   	; 0xf18 <sprintf>
     126:	8d b7       	in	r24, 0x3d	; 61
     128:	9e b7       	in	r25, 0x3e	; 62
     12a:	08 96       	adiw	r24, 0x08	; 8
     12c:	0f b6       	in	r0, 0x3f	; 63
     12e:	f8 94       	cli
     130:	9e bf       	out	0x3e, r25	; 62
     132:	0f be       	out	0x3f, r0	; 63
     134:	8d bf       	out	0x3d, r24	; 61
     136:	c8 01       	movw	r24, r16
     138:	51 d5       	rcall	.+2722   	; 0xbdc <uart_putstr>
     13a:	81 e0       	ldi	r24, 0x01	; 1
     13c:	01 c0       	rjmp	.+2      	; 0x140 <rx_telegram+0xde>
     13e:	80 e0       	ldi	r24, 0x00	; 0
     140:	cc 59       	subi	r28, 0x9C	; 156
     142:	df 4f       	sbci	r29, 0xFF	; 255
     144:	0f b6       	in	r0, 0x3f	; 63
     146:	f8 94       	cli
     148:	de bf       	out	0x3e, r29	; 62
     14a:	0f be       	out	0x3f, r0	; 63
     14c:	cd bf       	out	0x3d, r28	; 61
     14e:	cf 91       	pop	r28
     150:	df 91       	pop	r29
     152:	1f 91       	pop	r17
     154:	0f 91       	pop	r16
     156:	08 95       	ret

00000158 <proto_init>:
     158:	81 b3       	in	r24, 0x11	; 17
     15a:	80 66       	ori	r24, 0x60	; 96
     15c:	81 bb       	out	0x11, r24	; 17
     15e:	bf 9a       	sbi	0x17, 7	; 23
     160:	97 9a       	sbi	0x12, 7	; 18
     162:	d9 d3       	rcall	.+1970   	; 0x916 <rfm12_init>
     164:	86 e9       	ldi	r24, 0x96	; 150
     166:	e9 e4       	ldi	r30, 0x49	; 73
     168:	f3 e0       	ldi	r31, 0x03	; 3
     16a:	df 01       	movw	r26, r30
     16c:	1d 92       	st	X+, r1
     16e:	8a 95       	dec	r24
     170:	e9 f7       	brne	.-6      	; 0x16c <proto_init+0x14>
     172:	8f ed       	ldi	r24, 0xDF	; 223
     174:	93 e0       	ldi	r25, 0x03	; 3
     176:	61 e0       	ldi	r22, 0x01	; 1
     178:	70 e0       	ldi	r23, 0x00	; 0
     17a:	4a e0       	ldi	r20, 0x0A	; 10
     17c:	50 e0       	ldi	r21, 0x00	; 0
     17e:	9e d6       	rcall	.+3388   	; 0xebc <memset>
     180:	80 e0       	ldi	r24, 0x00	; 0
     182:	08 95       	ret

00000184 <proto_setup>:
     184:	6f 92       	push	r6
     186:	7f 92       	push	r7
     188:	8f 92       	push	r8
     18a:	9f 92       	push	r9
     18c:	af 92       	push	r10
     18e:	bf 92       	push	r11
     190:	cf 92       	push	r12
     192:	df 92       	push	r13
     194:	ef 92       	push	r14
     196:	ff 92       	push	r15
     198:	0f 93       	push	r16
     19a:	1f 93       	push	r17
     19c:	df 93       	push	r29
     19e:	cf 93       	push	r28
     1a0:	cd b7       	in	r28, 0x3d	; 61
     1a2:	de b7       	in	r29, 0x3e	; 62
     1a4:	c4 56       	subi	r28, 0x64	; 100
     1a6:	d0 40       	sbci	r29, 0x00	; 0
     1a8:	0f b6       	in	r0, 0x3f	; 63
     1aa:	f8 94       	cli
     1ac:	de bf       	out	0x3e, r29	; 62
     1ae:	0f be       	out	0x3f, r0	; 63
     1b0:	cd bf       	out	0x3d, r28	; 61
     1b2:	19 82       	std	Y+1, r1	; 0x01
     1b4:	1a 82       	std	Y+2, r1	; 0x02
     1b6:	1b 82       	std	Y+3, r1	; 0x03
     1b8:	1c 82       	std	Y+4, r1	; 0x04
     1ba:	fe 01       	movw	r30, r28
     1bc:	35 96       	adiw	r30, 0x05	; 5
     1be:	90 e6       	ldi	r25, 0x60	; 96
     1c0:	df 01       	movw	r26, r30
     1c2:	1d 92       	st	X+, r1
     1c4:	9a 95       	dec	r25
     1c6:	e9 f7       	brne	.-6      	; 0x1c2 <proto_setup+0x3e>
     1c8:	88 23       	and	r24, r24
     1ca:	09 f4       	brne	.+2      	; 0x1ce <proto_setup+0x4a>
     1cc:	bc c0       	rjmp	.+376    	; 0x346 <proto_setup+0x1c2>
     1ce:	88 e8       	ldi	r24, 0x88	; 136
     1d0:	90 e0       	ldi	r25, 0x00	; 0
     1d2:	04 d5       	rcall	.+2568   	; 0xbdc <uart_putstr>
     1d4:	4e 01       	movw	r8, r28
     1d6:	08 94       	sec
     1d8:	81 1c       	adc	r8, r1
     1da:	91 1c       	adc	r9, r1
     1dc:	33 e0       	ldi	r19, 0x03	; 3
     1de:	e3 2e       	mov	r14, r19
     1e0:	f1 2c       	mov	r15, r1
     1e2:	ec 0e       	add	r14, r28
     1e4:	fd 1e       	adc	r15, r29
     1e6:	06 ec       	ldi	r16, 0xC6	; 198
     1e8:	11 e0       	ldi	r17, 0x01	; 1
     1ea:	2f e2       	ldi	r18, 0x2F	; 47
     1ec:	c2 2e       	mov	r12, r18
     1ee:	21 e0       	ldi	r18, 0x01	; 1
     1f0:	d2 2e       	mov	r13, r18
     1f2:	9f ef       	ldi	r25, 0xFF	; 255
     1f4:	69 2e       	mov	r6, r25
     1f6:	71 2c       	mov	r7, r1
     1f8:	87 e0       	ldi	r24, 0x07	; 7
     1fa:	a8 2e       	mov	r10, r24
     1fc:	81 e0       	ldi	r24, 0x01	; 1
     1fe:	b8 2e       	mov	r11, r24
     200:	c4 01       	movw	r24, r8
     202:	64 e6       	ldi	r22, 0x64	; 100
     204:	a3 d5       	rcall	.+2886   	; 0xd4c <uart_getline>
     206:	89 81       	ldd	r24, Y+1	; 0x01
     208:	88 35       	cpi	r24, 0x58	; 88
     20a:	09 f4       	brne	.+2      	; 0x20e <proto_setup+0x8a>
     20c:	95 c0       	rjmp	.+298    	; 0x338 <proto_setup+0x1b4>
     20e:	89 35       	cpi	r24, 0x59	; 89
     210:	40 f4       	brcc	.+16     	; 0x222 <proto_setup+0x9e>
     212:	88 34       	cpi	r24, 0x48	; 72
     214:	a1 f0       	breq	.+40     	; 0x23e <proto_setup+0xba>
     216:	8e 34       	cpi	r24, 0x4E	; 78
     218:	09 f1       	breq	.+66     	; 0x25c <proto_setup+0xd8>
     21a:	87 34       	cpi	r24, 0x47	; 71
     21c:	09 f0       	breq	.+2      	; 0x220 <proto_setup+0x9c>
     21e:	8f c0       	rjmp	.+286    	; 0x33e <proto_setup+0x1ba>
     220:	53 c0       	rjmp	.+166    	; 0x2c8 <proto_setup+0x144>
     222:	88 36       	cpi	r24, 0x68	; 104
     224:	61 f0       	breq	.+24     	; 0x23e <proto_setup+0xba>
     226:	89 36       	cpi	r24, 0x69	; 105
     228:	20 f4       	brcc	.+8      	; 0x232 <proto_setup+0xae>
     22a:	87 36       	cpi	r24, 0x67	; 103
     22c:	09 f0       	breq	.+2      	; 0x230 <proto_setup+0xac>
     22e:	87 c0       	rjmp	.+270    	; 0x33e <proto_setup+0x1ba>
     230:	4b c0       	rjmp	.+150    	; 0x2c8 <proto_setup+0x144>
     232:	8e 36       	cpi	r24, 0x6E	; 110
     234:	99 f0       	breq	.+38     	; 0x25c <proto_setup+0xd8>
     236:	88 37       	cpi	r24, 0x78	; 120
     238:	09 f0       	breq	.+2      	; 0x23c <proto_setup+0xb8>
     23a:	81 c0       	rjmp	.+258    	; 0x33e <proto_setup+0x1ba>
     23c:	7d c0       	rjmp	.+250    	; 0x338 <proto_setup+0x1b4>
     23e:	8a 81       	ldd	r24, Y+2	; 0x02
     240:	8f 33       	cpi	r24, 0x3F	; 63
     242:	f1 f6       	brne	.-68     	; 0x200 <proto_setup+0x7c>
     244:	8a e9       	ldi	r24, 0x9A	; 154
     246:	90 e0       	ldi	r25, 0x00	; 0
     248:	c9 d4       	rcall	.+2450   	; 0xbdc <uart_putstr>
     24a:	84 ec       	ldi	r24, 0xC4	; 196
     24c:	90 e0       	ldi	r25, 0x00	; 0
     24e:	c6 d4       	rcall	.+2444   	; 0xbdc <uart_putstr>
     250:	88 ee       	ldi	r24, 0xE8	; 232
     252:	90 e0       	ldi	r25, 0x00	; 0
     254:	c3 d4       	rcall	.+2438   	; 0xbdc <uart_putstr>
     256:	84 e0       	ldi	r24, 0x04	; 4
     258:	91 e0       	ldi	r25, 0x01	; 1
     25a:	73 c0       	rjmp	.+230    	; 0x342 <proto_setup+0x1be>
     25c:	8a 81       	ldd	r24, Y+2	; 0x02
     25e:	8d 33       	cpi	r24, 0x3D	; 61
     260:	21 f0       	breq	.+8      	; 0x26a <proto_setup+0xe6>
     262:	8f 33       	cpi	r24, 0x3F	; 63
     264:	09 f0       	breq	.+2      	; 0x268 <proto_setup+0xe4>
     266:	65 c0       	rjmp	.+202    	; 0x332 <proto_setup+0x1ae>
     268:	1b c0       	rjmp	.+54     	; 0x2a0 <proto_setup+0x11c>
     26a:	c7 01       	movw	r24, r14
     26c:	01 d6       	rcall	.+3074   	; 0xe70 <atoi>
     26e:	b3 01       	movw	r22, r6
     270:	d8 d5       	rcall	.+2992   	; 0xe22 <__divmodhi4>
     272:	68 2f       	mov	r22, r24
     274:	80 93 d2 02 	sts	0x02D2, r24
     278:	80 e0       	ldi	r24, 0x00	; 0
     27a:	90 e0       	ldi	r25, 0x00	; 0
     27c:	4d d8       	rcall	.-3942   	; 0xfffff318 <__eeprom_end+0xff7ef316>
     27e:	00 d0       	rcall	.+0      	; 0x280 <proto_setup+0xfc>
     280:	00 d0       	rcall	.+0      	; 0x282 <proto_setup+0xfe>
     282:	00 d0       	rcall	.+0      	; 0x284 <proto_setup+0x100>
     284:	ed b7       	in	r30, 0x3d	; 61
     286:	fe b7       	in	r31, 0x3e	; 62
     288:	31 96       	adiw	r30, 0x01	; 1
     28a:	ad b7       	in	r26, 0x3d	; 61
     28c:	be b7       	in	r27, 0x3e	; 62
     28e:	12 96       	adiw	r26, 0x02	; 2
     290:	1c 93       	st	X, r17
     292:	0e 93       	st	-X, r16
     294:	11 97       	sbiw	r26, 0x01	; 1
     296:	b3 82       	std	Z+3, r11	; 0x03
     298:	a2 82       	std	Z+2, r10	; 0x02
     29a:	80 91 d2 02 	lds	r24, 0x02D2
     29e:	3c c0       	rjmp	.+120    	; 0x318 <proto_setup+0x194>
     2a0:	80 e0       	ldi	r24, 0x00	; 0
     2a2:	90 e0       	ldi	r25, 0x00	; 0
     2a4:	31 d8       	rcall	.-3998   	; 0xfffff308 <__eeprom_end+0xff7ef306>
     2a6:	80 93 d2 02 	sts	0x02D2, r24
     2aa:	00 d0       	rcall	.+0      	; 0x2ac <proto_setup+0x128>
     2ac:	00 d0       	rcall	.+0      	; 0x2ae <proto_setup+0x12a>
     2ae:	00 d0       	rcall	.+0      	; 0x2b0 <proto_setup+0x12c>
     2b0:	ed b7       	in	r30, 0x3d	; 61
     2b2:	fe b7       	in	r31, 0x3e	; 62
     2b4:	31 96       	adiw	r30, 0x01	; 1
     2b6:	ad b7       	in	r26, 0x3d	; 61
     2b8:	be b7       	in	r27, 0x3e	; 62
     2ba:	12 96       	adiw	r26, 0x02	; 2
     2bc:	1c 93       	st	X, r17
     2be:	0e 93       	st	-X, r16
     2c0:	11 97       	sbiw	r26, 0x01	; 1
     2c2:	b3 82       	std	Z+3, r11	; 0x03
     2c4:	a2 82       	std	Z+2, r10	; 0x02
     2c6:	28 c0       	rjmp	.+80     	; 0x318 <proto_setup+0x194>
     2c8:	8a 81       	ldd	r24, Y+2	; 0x02
     2ca:	8d 33       	cpi	r24, 0x3D	; 61
     2cc:	19 f0       	breq	.+6      	; 0x2d4 <proto_setup+0x150>
     2ce:	8f 33       	cpi	r24, 0x3F	; 63
     2d0:	81 f5       	brne	.+96     	; 0x332 <proto_setup+0x1ae>
     2d2:	0d c0       	rjmp	.+26     	; 0x2ee <proto_setup+0x16a>
     2d4:	c7 01       	movw	r24, r14
     2d6:	cc d5       	rcall	.+2968   	; 0xe70 <atoi>
     2d8:	61 e0       	ldi	r22, 0x01	; 1
     2da:	18 16       	cp	r1, r24
     2dc:	19 06       	cpc	r1, r25
     2de:	0c f0       	brlt	.+2      	; 0x2e2 <proto_setup+0x15e>
     2e0:	60 e0       	ldi	r22, 0x00	; 0
     2e2:	60 93 d3 02 	sts	0x02D3, r22
     2e6:	81 e0       	ldi	r24, 0x01	; 1
     2e8:	90 e0       	ldi	r25, 0x00	; 0
     2ea:	16 d8       	rcall	.-4052   	; 0xfffff318 <__eeprom_end+0xff7ef316>
     2ec:	05 c0       	rjmp	.+10     	; 0x2f8 <proto_setup+0x174>
     2ee:	81 e0       	ldi	r24, 0x01	; 1
     2f0:	90 e0       	ldi	r25, 0x00	; 0
     2f2:	0a d8       	rcall	.-4076   	; 0xfffff308 <__eeprom_end+0xff7ef306>
     2f4:	80 93 d2 02 	sts	0x02D2, r24
     2f8:	00 d0       	rcall	.+0      	; 0x2fa <proto_setup+0x176>
     2fa:	00 d0       	rcall	.+0      	; 0x2fc <proto_setup+0x178>
     2fc:	00 d0       	rcall	.+0      	; 0x2fe <proto_setup+0x17a>
     2fe:	ed b7       	in	r30, 0x3d	; 61
     300:	fe b7       	in	r31, 0x3e	; 62
     302:	31 96       	adiw	r30, 0x01	; 1
     304:	ad b7       	in	r26, 0x3d	; 61
     306:	be b7       	in	r27, 0x3e	; 62
     308:	12 96       	adiw	r26, 0x02	; 2
     30a:	1c 93       	st	X, r17
     30c:	0e 93       	st	-X, r16
     30e:	11 97       	sbiw	r26, 0x01	; 1
     310:	d3 82       	std	Z+3, r13	; 0x03
     312:	c2 82       	std	Z+2, r12	; 0x02
     314:	80 91 d3 02 	lds	r24, 0x02D3
     318:	84 83       	std	Z+4, r24	; 0x04
     31a:	15 82       	std	Z+5, r1	; 0x05
     31c:	fd d5       	rcall	.+3066   	; 0xf18 <sprintf>
     31e:	8d b7       	in	r24, 0x3d	; 61
     320:	9e b7       	in	r25, 0x3e	; 62
     322:	06 96       	adiw	r24, 0x06	; 6
     324:	0f b6       	in	r0, 0x3f	; 63
     326:	f8 94       	cli
     328:	9e bf       	out	0x3e, r25	; 62
     32a:	0f be       	out	0x3f, r0	; 63
     32c:	8d bf       	out	0x3d, r24	; 61
     32e:	c8 01       	movw	r24, r16
     330:	08 c0       	rjmp	.+16     	; 0x342 <proto_setup+0x1be>
     332:	86 e1       	ldi	r24, 0x16	; 22
     334:	91 e0       	ldi	r25, 0x01	; 1
     336:	05 c0       	rjmp	.+10     	; 0x342 <proto_setup+0x1be>
     338:	81 e4       	ldi	r24, 0x41	; 65
     33a:	91 e0       	ldi	r25, 0x01	; 1
     33c:	27 c0       	rjmp	.+78     	; 0x38c <proto_setup+0x208>
     33e:	88 e5       	ldi	r24, 0x58	; 88
     340:	91 e0       	ldi	r25, 0x01	; 1
     342:	4c d4       	rcall	.+2200   	; 0xbdc <uart_putstr>
     344:	5d cf       	rjmp	.-326    	; 0x200 <proto_setup+0x7c>
     346:	80 e0       	ldi	r24, 0x00	; 0
     348:	90 e0       	ldi	r25, 0x00	; 0
     34a:	de d7       	rcall	.+4028   	; 0x1308 <__eerd_byte_m8>
     34c:	80 93 d2 02 	sts	0x02D2, r24
     350:	00 d0       	rcall	.+0      	; 0x352 <proto_setup+0x1ce>
     352:	00 d0       	rcall	.+0      	; 0x354 <proto_setup+0x1d0>
     354:	00 d0       	rcall	.+0      	; 0x356 <proto_setup+0x1d2>
     356:	ed b7       	in	r30, 0x3d	; 61
     358:	fe b7       	in	r31, 0x3e	; 62
     35a:	31 96       	adiw	r30, 0x01	; 1
     35c:	06 ec       	ldi	r16, 0xC6	; 198
     35e:	11 e0       	ldi	r17, 0x01	; 1
     360:	ad b7       	in	r26, 0x3d	; 61
     362:	be b7       	in	r27, 0x3e	; 62
     364:	12 96       	adiw	r26, 0x02	; 2
     366:	1c 93       	st	X, r17
     368:	0e 93       	st	-X, r16
     36a:	11 97       	sbiw	r26, 0x01	; 1
     36c:	20 e7       	ldi	r18, 0x70	; 112
     36e:	31 e0       	ldi	r19, 0x01	; 1
     370:	33 83       	std	Z+3, r19	; 0x03
     372:	22 83       	std	Z+2, r18	; 0x02
     374:	84 83       	std	Z+4, r24	; 0x04
     376:	15 82       	std	Z+5, r1	; 0x05
     378:	cf d5       	rcall	.+2974   	; 0xf18 <sprintf>
     37a:	8d b7       	in	r24, 0x3d	; 61
     37c:	9e b7       	in	r25, 0x3e	; 62
     37e:	06 96       	adiw	r24, 0x06	; 6
     380:	0f b6       	in	r0, 0x3f	; 63
     382:	f8 94       	cli
     384:	9e bf       	out	0x3e, r25	; 62
     386:	0f be       	out	0x3f, r0	; 63
     388:	8d bf       	out	0x3d, r24	; 61
     38a:	c8 01       	movw	r24, r16
     38c:	27 d4       	rcall	.+2126   	; 0xbdc <uart_putstr>
     38e:	80 e0       	ldi	r24, 0x00	; 0
     390:	cc 59       	subi	r28, 0x9C	; 156
     392:	df 4f       	sbci	r29, 0xFF	; 255
     394:	0f b6       	in	r0, 0x3f	; 63
     396:	f8 94       	cli
     398:	de bf       	out	0x3e, r29	; 62
     39a:	0f be       	out	0x3f, r0	; 63
     39c:	cd bf       	out	0x3d, r28	; 61
     39e:	cf 91       	pop	r28
     3a0:	df 91       	pop	r29
     3a2:	1f 91       	pop	r17
     3a4:	0f 91       	pop	r16
     3a6:	ff 90       	pop	r15
     3a8:	ef 90       	pop	r14
     3aa:	df 90       	pop	r13
     3ac:	cf 90       	pop	r12
     3ae:	bf 90       	pop	r11
     3b0:	af 90       	pop	r10
     3b2:	9f 90       	pop	r9
     3b4:	8f 90       	pop	r8
     3b6:	7f 90       	pop	r7
     3b8:	6f 90       	pop	r6
     3ba:	08 95       	ret

000003bc <proto_cycle>:
     3bc:	cf 92       	push	r12
     3be:	df 92       	push	r13
     3c0:	ef 92       	push	r14
     3c2:	ff 92       	push	r15
     3c4:	0f 93       	push	r16
     3c6:	1f 93       	push	r17
     3c8:	cf 93       	push	r28
     3ca:	df 93       	push	r29
     3cc:	e0 91 ef 03 	lds	r30, 0x03EF
     3d0:	f0 91 f0 03 	lds	r31, 0x03F0
     3d4:	80 81       	ld	r24, Z
     3d6:	82 30       	cpi	r24, 0x02	; 2
     3d8:	09 f0       	breq	.+2      	; 0x3dc <proto_cycle+0x20>
     3da:	62 c0       	rjmp	.+196    	; 0x4a0 <__stack+0x41>
     3dc:	96 9a       	sbi	0x12, 6	; 18
     3de:	80 e1       	ldi	r24, 0x10	; 16
     3e0:	97 e2       	ldi	r25, 0x27	; 39
     3e2:	90 93 d8 02 	sts	0x02D8, r25
     3e6:	80 93 d7 02 	sts	0x02D7, r24
     3ea:	81 81       	ldd	r24, Z+1	; 0x01
     3ec:	c8 2e       	mov	r12, r24
     3ee:	dd 24       	eor	r13, r13
     3f0:	34 96       	adiw	r30, 0x04	; 4
     3f2:	f0 93 d5 02 	sts	0x02D5, r31
     3f6:	e0 93 d4 02 	sts	0x02D4, r30
     3fa:	06 ec       	ldi	r16, 0xC6	; 198
     3fc:	11 e0       	ldi	r17, 0x01	; 1
     3fe:	4c e7       	ldi	r20, 0x7C	; 124
     400:	e4 2e       	mov	r14, r20
     402:	41 e0       	ldi	r20, 0x01	; 1
     404:	f4 2e       	mov	r15, r20
     406:	46 c0       	rjmp	.+140    	; 0x494 <__stack+0x35>
     408:	80 91 d4 02 	lds	r24, 0x02D4
     40c:	90 91 d5 02 	lds	r25, 0x02D5
     410:	28 de       	rcall	.-944    	; 0x62 <rx_telegram>
     412:	a0 91 d4 02 	lds	r26, 0x02D4
     416:	b0 91 d5 02 	lds	r27, 0x02D5
     41a:	19 96       	adiw	r26, 0x09	; 9
     41c:	8c 91       	ld	r24, X
     41e:	19 97       	sbiw	r26, 0x09	; 9
     420:	81 50       	subi	r24, 0x01	; 1
     422:	19 96       	adiw	r26, 0x09	; 9
     424:	8c 93       	st	X, r24
     426:	19 97       	sbiw	r26, 0x09	; 9
     428:	88 23       	and	r24, r24
     42a:	81 f1       	breq	.+96     	; 0x48c <__stack+0x2d>
     42c:	2d b7       	in	r18, 0x3d	; 61
     42e:	3e b7       	in	r19, 0x3e	; 62
     430:	2a 50       	subi	r18, 0x0A	; 10
     432:	30 40       	sbci	r19, 0x00	; 0
     434:	0f b6       	in	r0, 0x3f	; 63
     436:	f8 94       	cli
     438:	3e bf       	out	0x3e, r19	; 62
     43a:	0f be       	out	0x3f, r0	; 63
     43c:	2d bf       	out	0x3d, r18	; 61
     43e:	ed b7       	in	r30, 0x3d	; 61
     440:	fe b7       	in	r31, 0x3e	; 62
     442:	31 96       	adiw	r30, 0x01	; 1
     444:	cd b7       	in	r28, 0x3d	; 61
     446:	de b7       	in	r29, 0x3e	; 62
     448:	1a 83       	std	Y+2, r17	; 0x02
     44a:	09 83       	std	Y+1, r16	; 0x01
     44c:	f3 82       	std	Z+3, r15	; 0x03
     44e:	e2 82       	std	Z+2, r14	; 0x02
     450:	11 96       	adiw	r26, 0x01	; 1
     452:	9c 91       	ld	r25, X
     454:	11 97       	sbiw	r26, 0x01	; 1
     456:	94 83       	std	Z+4, r25	; 0x04
     458:	15 82       	std	Z+5, r1	; 0x05
     45a:	13 96       	adiw	r26, 0x03	; 3
     45c:	9c 91       	ld	r25, X
     45e:	96 83       	std	Z+6, r25	; 0x06
     460:	17 82       	std	Z+7, r1	; 0x07
     462:	80 87       	std	Z+8, r24	; 0x08
     464:	11 86       	std	Z+9, r1	; 0x09
     466:	58 d5       	rcall	.+2736   	; 0xf18 <sprintf>
     468:	2d b7       	in	r18, 0x3d	; 61
     46a:	3e b7       	in	r19, 0x3e	; 62
     46c:	26 5f       	subi	r18, 0xF6	; 246
     46e:	3f 4f       	sbci	r19, 0xFF	; 255
     470:	0f b6       	in	r0, 0x3f	; 63
     472:	f8 94       	cli
     474:	3e bf       	out	0x3e, r19	; 62
     476:	0f be       	out	0x3f, r0	; 63
     478:	2d bf       	out	0x3d, r18	; 61
     47a:	c8 01       	movw	r24, r16
     47c:	af d3       	rcall	.+1886   	; 0xbdc <uart_putstr>
     47e:	40 91 d4 02 	lds	r20, 0x02D4
     482:	50 91 d5 02 	lds	r21, 0x02D5
     486:	8f e0       	ldi	r24, 0x0F	; 15
     488:	60 e0       	ldi	r22, 0x00	; 0
     48a:	0a d2       	rcall	.+1044   	; 0x8a0 <rfm12_tx>
     48c:	81 ef       	ldi	r24, 0xF1	; 241
     48e:	9f ef       	ldi	r25, 0xFF	; 255
     490:	c8 0e       	add	r12, r24
     492:	d9 1e       	adc	r13, r25
     494:	9f e0       	ldi	r25, 0x0F	; 15
     496:	c9 16       	cp	r12, r25
     498:	d1 04       	cpc	r13, r1
     49a:	08 f0       	brcs	.+2      	; 0x49e <__stack+0x3f>
     49c:	b5 cf       	rjmp	.-150    	; 0x408 <proto_cycle+0x4c>
     49e:	1b d2       	rcall	.+1078   	; 0x8d6 <rfm12_rx_clear>
     4a0:	ae d1       	rcall	.+860    	; 0x7fe <rfm12_tick>
     4a2:	80 91 d7 02 	lds	r24, 0x02D7
     4a6:	90 91 d8 02 	lds	r25, 0x02D8
     4aa:	00 97       	sbiw	r24, 0x00	; 0
     4ac:	29 f0       	breq	.+10     	; 0x4b8 <__stack+0x59>
     4ae:	01 97       	sbiw	r24, 0x01	; 1
     4b0:	90 93 d8 02 	sts	0x02D8, r25
     4b4:	80 93 d7 02 	sts	0x02D7, r24
     4b8:	80 91 d7 02 	lds	r24, 0x02D7
     4bc:	90 91 d8 02 	lds	r25, 0x02D8
     4c0:	00 97       	sbiw	r24, 0x00	; 0
     4c2:	09 f4       	brne	.+2      	; 0x4c6 <__stack+0x67>
     4c4:	96 98       	cbi	0x12, 6	; 18
     4c6:	80 91 d9 02 	lds	r24, 0x02D9
     4ca:	90 91 da 02 	lds	r25, 0x02DA
     4ce:	00 97       	sbiw	r24, 0x00	; 0
     4d0:	29 f0       	breq	.+10     	; 0x4dc <__stack+0x7d>
     4d2:	01 97       	sbiw	r24, 0x01	; 1
     4d4:	90 93 da 02 	sts	0x02DA, r25
     4d8:	80 93 d9 02 	sts	0x02D9, r24
     4dc:	80 91 d9 02 	lds	r24, 0x02D9
     4e0:	90 91 da 02 	lds	r25, 0x02DA
     4e4:	00 97       	sbiw	r24, 0x00	; 0
     4e6:	09 f4       	brne	.+2      	; 0x4ea <__stack+0x8b>
     4e8:	95 98       	cbi	0x12, 5	; 18
     4ea:	81 e0       	ldi	r24, 0x01	; 1
     4ec:	df 91       	pop	r29
     4ee:	cf 91       	pop	r28
     4f0:	1f 91       	pop	r17
     4f2:	0f 91       	pop	r16
     4f4:	ff 90       	pop	r15
     4f6:	ef 90       	pop	r14
     4f8:	df 90       	pop	r13
     4fa:	cf 90       	pop	r12
     4fc:	08 95       	ret

000004fe <proto_get_tx_data>:
     4fe:	90 91 d6 02 	lds	r25, 0x02D6
     502:	20 e0       	ldi	r18, 0x00	; 0
     504:	30 e0       	ldi	r19, 0x00	; 0
     506:	aa e0       	ldi	r26, 0x0A	; 10
     508:	49 2f       	mov	r20, r25
     50a:	50 e0       	ldi	r21, 0x00	; 0
     50c:	fa 01       	movw	r30, r20
     50e:	e1 52       	subi	r30, 0x21	; 33
     510:	fc 4f       	sbci	r31, 0xFC	; 252
     512:	80 81       	ld	r24, Z
     514:	81 30       	cpi	r24, 0x01	; 1
     516:	c9 f4       	brne	.+50     	; 0x54a <proto_get_tx_data+0x4c>
     518:	90 93 d6 02 	sts	0x02D6, r25
     51c:	82 e0       	ldi	r24, 0x02	; 2
     51e:	80 83       	st	Z, r24
     520:	2f e0       	ldi	r18, 0x0F	; 15
     522:	92 9f       	mul	r25, r18
     524:	c0 01       	movw	r24, r0
     526:	11 24       	eor	r1, r1
     528:	87 5b       	subi	r24, 0xB7	; 183
     52a:	9c 4f       	sbci	r25, 0xFC	; 252
     52c:	dc 01       	movw	r26, r24
     52e:	1d 92       	st	X+, r1
     530:	2a 95       	dec	r18
     532:	e9 f7       	brne	.-6      	; 0x52e <proto_get_tx_data+0x30>
     534:	9a 01       	movw	r18, r20
     536:	64 e0       	ldi	r22, 0x04	; 4
     538:	22 0f       	add	r18, r18
     53a:	33 1f       	adc	r19, r19
     53c:	6a 95       	dec	r22
     53e:	e1 f7       	brne	.-8      	; 0x538 <proto_get_tx_data+0x3a>
     540:	24 1b       	sub	r18, r20
     542:	35 0b       	sbc	r19, r21
     544:	2c 5a       	subi	r18, 0xAC	; 172
     546:	3c 4f       	sbci	r19, 0xFC	; 252
     548:	0d c0       	rjmp	.+26     	; 0x564 <proto_get_tx_data+0x66>
     54a:	89 2f       	mov	r24, r25
     54c:	8f 5f       	subi	r24, 0xFF	; 255
     54e:	6a 2f       	mov	r22, r26
     550:	5c d4       	rcall	.+2232   	; 0xe0a <__udivmodqi4>
     552:	2f 5f       	subi	r18, 0xFF	; 255
     554:	3f 4f       	sbci	r19, 0xFF	; 255
     556:	2a 30       	cpi	r18, 0x0A	; 10
     558:	31 05       	cpc	r19, r1
     55a:	b1 f6       	brne	.-84     	; 0x508 <proto_get_tx_data+0xa>
     55c:	90 93 d6 02 	sts	0x02D6, r25
     560:	20 e0       	ldi	r18, 0x00	; 0
     562:	30 e0       	ldi	r19, 0x00	; 0
     564:	c9 01       	movw	r24, r18
     566:	08 95       	ret

00000568 <proto_tx_data>:
     568:	0f 93       	push	r16
     56a:	1f 93       	push	r17
     56c:	cf 93       	push	r28
     56e:	df 93       	push	r29
     570:	20 91 d6 02 	lds	r18, 0x02D6
     574:	30 e0       	ldi	r19, 0x00	; 0
     576:	e9 01       	movw	r28, r18
     578:	74 e0       	ldi	r23, 0x04	; 4
     57a:	cc 0f       	add	r28, r28
     57c:	dd 1f       	adc	r29, r29
     57e:	7a 95       	dec	r23
     580:	e1 f7       	brne	.-8      	; 0x57a <proto_tx_data+0x12>
     582:	c2 1b       	sub	r28, r18
     584:	d3 0b       	sbc	r29, r19
     586:	9e 01       	movw	r18, r28
     588:	2c 5a       	subi	r18, 0xAC	; 172
     58a:	3c 4f       	sbci	r19, 0xFC	; 252
     58c:	28 17       	cp	r18, r24
     58e:	39 07       	cpc	r19, r25
     590:	09 f0       	breq	.+2      	; 0x594 <proto_tx_data+0x2c>
     592:	43 c0       	rjmp	.+134    	; 0x61a <proto_tx_data+0xb2>
     594:	c7 5b       	subi	r28, 0xB7	; 183
     596:	dc 4f       	sbci	r29, 0xFC	; 252
     598:	18 82       	st	Y, r1
     59a:	80 91 d2 02 	lds	r24, 0x02D2
     59e:	89 83       	std	Y+1, r24	; 0x01
     5a0:	1a 82       	std	Y+2, r1	; 0x02
     5a2:	1b 82       	std	Y+3, r1	; 0x03
     5a4:	85 e0       	ldi	r24, 0x05	; 5
     5a6:	89 87       	std	Y+9, r24	; 0x09
     5a8:	8d b7       	in	r24, 0x3d	; 61
     5aa:	9e b7       	in	r25, 0x3e	; 62
     5ac:	0a 97       	sbiw	r24, 0x0a	; 10
     5ae:	0f b6       	in	r0, 0x3f	; 63
     5b0:	f8 94       	cli
     5b2:	9e bf       	out	0x3e, r25	; 62
     5b4:	0f be       	out	0x3f, r0	; 63
     5b6:	8d bf       	out	0x3d, r24	; 61
     5b8:	ed b7       	in	r30, 0x3d	; 61
     5ba:	fe b7       	in	r31, 0x3e	; 62
     5bc:	31 96       	adiw	r30, 0x01	; 1
     5be:	06 ec       	ldi	r16, 0xC6	; 198
     5c0:	11 e0       	ldi	r17, 0x01	; 1
     5c2:	ad b7       	in	r26, 0x3d	; 61
     5c4:	be b7       	in	r27, 0x3e	; 62
     5c6:	12 96       	adiw	r26, 0x02	; 2
     5c8:	1c 93       	st	X, r17
     5ca:	0e 93       	st	-X, r16
     5cc:	11 97       	sbiw	r26, 0x01	; 1
     5ce:	82 ea       	ldi	r24, 0xA2	; 162
     5d0:	91 e0       	ldi	r25, 0x01	; 1
     5d2:	93 83       	std	Z+3, r25	; 0x03
     5d4:	82 83       	std	Z+2, r24	; 0x02
     5d6:	89 81       	ldd	r24, Y+1	; 0x01
     5d8:	84 83       	std	Z+4, r24	; 0x04
     5da:	15 82       	std	Z+5, r1	; 0x05
     5dc:	8b 81       	ldd	r24, Y+3	; 0x03
     5de:	86 83       	std	Z+6, r24	; 0x06
     5e0:	17 82       	std	Z+7, r1	; 0x07
     5e2:	85 e0       	ldi	r24, 0x05	; 5
     5e4:	90 e0       	ldi	r25, 0x00	; 0
     5e6:	91 87       	std	Z+9, r25	; 0x09
     5e8:	80 87       	std	Z+8, r24	; 0x08
     5ea:	96 d4       	rcall	.+2348   	; 0xf18 <sprintf>
     5ec:	8d b7       	in	r24, 0x3d	; 61
     5ee:	9e b7       	in	r25, 0x3e	; 62
     5f0:	0a 96       	adiw	r24, 0x0a	; 10
     5f2:	0f b6       	in	r0, 0x3f	; 63
     5f4:	f8 94       	cli
     5f6:	9e bf       	out	0x3e, r25	; 62
     5f8:	0f be       	out	0x3f, r0	; 63
     5fa:	8d bf       	out	0x3d, r24	; 61
     5fc:	c8 01       	movw	r24, r16
     5fe:	ee d2       	rcall	.+1500   	; 0xbdc <uart_putstr>
     600:	8f e0       	ldi	r24, 0x0F	; 15
     602:	60 e0       	ldi	r22, 0x00	; 0
     604:	ae 01       	movw	r20, r28
     606:	4c d1       	rcall	.+664    	; 0x8a0 <rfm12_tx>
     608:	95 9a       	sbi	0x12, 5	; 18
     60a:	80 e1       	ldi	r24, 0x10	; 16
     60c:	97 e2       	ldi	r25, 0x27	; 39
     60e:	90 93 da 02 	sts	0x02DA, r25
     612:	80 93 d9 02 	sts	0x02D9, r24
     616:	80 e0       	ldi	r24, 0x00	; 0
     618:	01 c0       	rjmp	.+2      	; 0x61c <proto_tx_data+0xb4>
     61a:	81 e0       	ldi	r24, 0x01	; 1
     61c:	df 91       	pop	r29
     61e:	cf 91       	pop	r28
     620:	1f 91       	pop	r17
     622:	0f 91       	pop	r16
     624:	08 95       	ret

00000626 <rfm12_data>:
     626:	c2 98       	cbi	0x18, 2	; 24
     628:	9f b9       	out	0x0f, r25	; 15
     62a:	77 9b       	sbis	0x0e, 7	; 14
     62c:	fe cf       	rjmp	.-4      	; 0x62a <rfm12_data+0x4>
     62e:	8f b9       	out	0x0f, r24	; 15
     630:	77 9b       	sbis	0x0e, 7	; 14
     632:	fe cf       	rjmp	.-4      	; 0x630 <rfm12_data+0xa>
     634:	c2 9a       	sbi	0x18, 2	; 24
     636:	08 95       	ret

00000638 <rfm12_read>:
     638:	c2 98       	cbi	0x18, 2	; 24
     63a:	9f b9       	out	0x0f, r25	; 15
     63c:	77 9b       	sbis	0x0e, 7	; 14
     63e:	fe cf       	rjmp	.-4      	; 0x63c <rfm12_read+0x4>
     640:	9f b1       	in	r25, 0x0f	; 15
     642:	59 2f       	mov	r21, r25
     644:	40 e0       	ldi	r20, 0x00	; 0
     646:	8f b9       	out	0x0f, r24	; 15
     648:	77 9b       	sbis	0x0e, 7	; 14
     64a:	fe cf       	rjmp	.-4      	; 0x648 <rfm12_read+0x10>
     64c:	2f b1       	in	r18, 0x0f	; 15
     64e:	c2 9a       	sbi	0x18, 2	; 24
     650:	30 e0       	ldi	r19, 0x00	; 0
     652:	24 2b       	or	r18, r20
     654:	35 2b       	or	r19, r21
     656:	c9 01       	movw	r24, r18
     658:	08 95       	ret

0000065a <rfm12_read_int_flags_inline>:
     65a:	c2 98       	cbi	0x18, 2	; 24
     65c:	1f b8       	out	0x0f, r1	; 15
     65e:	77 9b       	sbis	0x0e, 7	; 14
     660:	fe cf       	rjmp	.-4      	; 0x65e <rfm12_read_int_flags_inline+0x4>
     662:	c2 9a       	sbi	0x18, 2	; 24
     664:	8f b1       	in	r24, 0x0f	; 15
     666:	08 95       	ret

00000668 <rfm12_data_inline>:
     668:	c2 98       	cbi	0x18, 2	; 24
     66a:	8f b9       	out	0x0f, r24	; 15
     66c:	77 9b       	sbis	0x0e, 7	; 14
     66e:	fe cf       	rjmp	.-4      	; 0x66c <rfm12_data_inline+0x4>
     670:	6f b9       	out	0x0f, r22	; 15
     672:	77 9b       	sbis	0x0e, 7	; 14
     674:	fe cf       	rjmp	.-4      	; 0x672 <rfm12_data_inline+0xa>
     676:	c2 9a       	sbi	0x18, 2	; 24
     678:	08 95       	ret

0000067a <rfm12_read_fifo_inline>:
     67a:	c2 98       	cbi	0x18, 2	; 24
     67c:	80 eb       	ldi	r24, 0xB0	; 176
     67e:	8f b9       	out	0x0f, r24	; 15
     680:	77 9b       	sbis	0x0e, 7	; 14
     682:	fe cf       	rjmp	.-4      	; 0x680 <rfm12_read_fifo_inline+0x6>
     684:	1f b8       	out	0x0f, r1	; 15
     686:	77 9b       	sbis	0x0e, 7	; 14
     688:	fe cf       	rjmp	.-4      	; 0x686 <rfm12_read_fifo_inline+0xc>
     68a:	c2 9a       	sbi	0x18, 2	; 24
     68c:	8f b1       	in	r24, 0x0f	; 15
     68e:	08 95       	ret

00000690 <spi_init>:
     690:	bb 9a       	sbi	0x17, 3	; 23
     692:	bd 9a       	sbi	0x17, 5	; 23
     694:	ba 9a       	sbi	0x17, 2	; 23
     696:	bc 98       	cbi	0x17, 4	; 23
     698:	81 e5       	ldi	r24, 0x51	; 81
     69a:	8d b9       	out	0x0d, r24	; 13
     69c:	08 95       	ret

0000069e <__vector_1>:
     69e:	78 94       	sei
     6a0:	1f 92       	push	r1
     6a2:	0f 92       	push	r0
     6a4:	0f b6       	in	r0, 0x3f	; 63
     6a6:	0f 92       	push	r0
     6a8:	11 24       	eor	r1, r1
     6aa:	1f 93       	push	r17
     6ac:	2f 93       	push	r18
     6ae:	3f 93       	push	r19
     6b0:	4f 93       	push	r20
     6b2:	5f 93       	push	r21
     6b4:	6f 93       	push	r22
     6b6:	7f 93       	push	r23
     6b8:	8f 93       	push	r24
     6ba:	9f 93       	push	r25
     6bc:	af 93       	push	r26
     6be:	bf 93       	push	r27
     6c0:	ef 93       	push	r30
     6c2:	ff 93       	push	r31
     6c4:	8b b7       	in	r24, 0x3b	; 59
     6c6:	8f 7b       	andi	r24, 0xBF	; 191
     6c8:	8b bf       	out	0x3b, r24	; 59
     6ca:	c7 df       	rcall	.-114    	; 0x65a <rfm12_read_int_flags_inline>
     6cc:	87 ff       	sbrs	r24, 7
     6ce:	82 c0       	rjmp	.+260    	; 0x7d4 <__vector_1+0x136>
     6d0:	80 91 e9 03 	lds	r24, 0x03E9
     6d4:	81 30       	cpi	r24, 0x01	; 1
     6d6:	e1 f0       	breq	.+56     	; 0x710 <__vector_1+0x72>
     6d8:	81 30       	cpi	r24, 0x01	; 1
     6da:	20 f0       	brcs	.+8      	; 0x6e4 <__vector_1+0x46>
     6dc:	82 30       	cpi	r24, 0x02	; 2
     6de:	09 f0       	breq	.+2      	; 0x6e2 <__vector_1+0x44>
     6e0:	71 c0       	rjmp	.+226    	; 0x7c4 <__vector_1+0x126>
     6e2:	58 c0       	rjmp	.+176    	; 0x794 <__vector_1+0xf6>
     6e4:	11 e0       	ldi	r17, 0x01	; 1
     6e6:	10 93 ec 03 	sts	0x03EC, r17
     6ea:	c7 df       	rcall	.-114    	; 0x67a <rfm12_read_fifo_inline>
     6ec:	80 93 db 02 	sts	0x02DB, r24
     6f0:	98 2f       	mov	r25, r24
     6f2:	9d 5f       	subi	r25, 0xFD	; 253
     6f4:	90 93 eb 03 	sts	0x03EB, r25
     6f8:	e0 91 ed 03 	lds	r30, 0x03ED
     6fc:	f0 91 ee 03 	lds	r31, 0x03EE
     700:	90 81       	ld	r25, Z
     702:	99 23       	and	r25, r25
     704:	09 f0       	breq	.+2      	; 0x708 <__vector_1+0x6a>
     706:	5e c0       	rjmp	.+188    	; 0x7c4 <__vector_1+0x126>
     708:	10 93 e9 03 	sts	0x03E9, r17
     70c:	81 83       	std	Z+1, r24	; 0x01
     70e:	62 c0       	rjmp	.+196    	; 0x7d4 <__vector_1+0x136>
     710:	90 91 ec 03 	lds	r25, 0x03EC
     714:	80 91 eb 03 	lds	r24, 0x03EB
     718:	98 17       	cp	r25, r24
     71a:	d8 f4       	brcc	.+54     	; 0x752 <__vector_1+0xb4>
     71c:	ae df       	rcall	.-164    	; 0x67a <rfm12_read_fifo_inline>
     71e:	90 91 db 02 	lds	r25, 0x02DB
     722:	98 27       	eor	r25, r24
     724:	90 93 db 02 	sts	0x02DB, r25
     728:	20 91 ec 03 	lds	r18, 0x03EC
     72c:	21 32       	cpi	r18, 0x21	; 33
     72e:	38 f4       	brcc	.+14     	; 0x73e <__vector_1+0xa0>
     730:	e0 91 ed 03 	lds	r30, 0x03ED
     734:	f0 91 ee 03 	lds	r31, 0x03EE
     738:	e2 0f       	add	r30, r18
     73a:	f1 1d       	adc	r31, r1
     73c:	81 83       	std	Z+1, r24	; 0x01
     73e:	80 91 ec 03 	lds	r24, 0x03EC
     742:	82 30       	cpi	r24, 0x02	; 2
     744:	11 f4       	brne	.+4      	; 0x74a <__vector_1+0xac>
     746:	9f 3f       	cpi	r25, 0xFF	; 255
     748:	e9 f5       	brne	.+122    	; 0x7c4 <__vector_1+0x126>
     74a:	8f 5f       	subi	r24, 0xFF	; 255
     74c:	80 93 ec 03 	sts	0x03EC, r24
     750:	41 c0       	rjmp	.+130    	; 0x7d4 <__vector_1+0x136>
     752:	e0 91 ed 03 	lds	r30, 0x03ED
     756:	f0 91 ee 03 	lds	r31, 0x03EE
     75a:	82 e0       	ldi	r24, 0x02	; 2
     75c:	80 83       	st	Z, r24
     75e:	80 91 f1 03 	lds	r24, 0x03F1
     762:	90 e0       	ldi	r25, 0x00	; 0
     764:	01 96       	adiw	r24, 0x01	; 1
     766:	81 70       	andi	r24, 0x01	; 1
     768:	90 70       	andi	r25, 0x00	; 0
     76a:	80 93 f1 03 	sts	0x03F1, r24
     76e:	28 2f       	mov	r18, r24
     770:	30 e0       	ldi	r19, 0x00	; 0
     772:	c9 01       	movw	r24, r18
     774:	88 0f       	add	r24, r24
     776:	99 1f       	adc	r25, r25
     778:	45 e0       	ldi	r20, 0x05	; 5
     77a:	22 0f       	add	r18, r18
     77c:	33 1f       	adc	r19, r19
     77e:	4a 95       	dec	r20
     780:	e1 f7       	brne	.-8      	; 0x77a <__vector_1+0xdc>
     782:	82 0f       	add	r24, r18
     784:	93 1f       	adc	r25, r19
     786:	8d 50       	subi	r24, 0x0D	; 13
     788:	9c 4f       	sbci	r25, 0xFC	; 252
     78a:	90 93 ee 03 	sts	0x03EE, r25
     78e:	80 93 ed 03 	sts	0x03ED, r24
     792:	18 c0       	rjmp	.+48     	; 0x7c4 <__vector_1+0x126>
     794:	80 91 ec 03 	lds	r24, 0x03EC
     798:	90 91 eb 03 	lds	r25, 0x03EB
     79c:	89 17       	cp	r24, r25
     79e:	50 f4       	brcc	.+20     	; 0x7b4 <__vector_1+0x116>
     7a0:	e8 2f       	mov	r30, r24
     7a2:	f0 e0       	ldi	r31, 0x00	; 0
     7a4:	e9 5c       	subi	r30, 0xC9	; 201
     7a6:	fb 4f       	sbci	r31, 0xFB	; 251
     7a8:	60 81       	ld	r22, Z
     7aa:	8f 5f       	subi	r24, 0xFF	; 255
     7ac:	80 93 ec 03 	sts	0x03EC, r24
     7b0:	88 eb       	ldi	r24, 0xB8	; 184
     7b2:	0f c0       	rjmp	.+30     	; 0x7d2 <__vector_1+0x134>
     7b4:	10 92 ea 03 	sts	0x03EA, r1
     7b8:	81 e8       	ldi	r24, 0x81	; 129
     7ba:	92 e8       	ldi	r25, 0x82	; 130
     7bc:	34 df       	rcall	.-408    	; 0x626 <rfm12_data>
     7be:	88 eb       	ldi	r24, 0xB8	; 184
     7c0:	6a ea       	ldi	r22, 0xAA	; 170
     7c2:	52 df       	rcall	.-348    	; 0x668 <rfm12_data_inline>
     7c4:	10 92 e9 03 	sts	0x03E9, r1
     7c8:	8a ec       	ldi	r24, 0xCA	; 202
     7ca:	61 e8       	ldi	r22, 0x81	; 129
     7cc:	4d df       	rcall	.-358    	; 0x668 <rfm12_data_inline>
     7ce:	8a ec       	ldi	r24, 0xCA	; 202
     7d0:	63 e8       	ldi	r22, 0x83	; 131
     7d2:	4a df       	rcall	.-364    	; 0x668 <rfm12_data_inline>
     7d4:	8b b7       	in	r24, 0x3b	; 59
     7d6:	80 64       	ori	r24, 0x40	; 64
     7d8:	8b bf       	out	0x3b, r24	; 59
     7da:	ff 91       	pop	r31
     7dc:	ef 91       	pop	r30
     7de:	bf 91       	pop	r27
     7e0:	af 91       	pop	r26
     7e2:	9f 91       	pop	r25
     7e4:	8f 91       	pop	r24
     7e6:	7f 91       	pop	r23
     7e8:	6f 91       	pop	r22
     7ea:	5f 91       	pop	r21
     7ec:	4f 91       	pop	r20
     7ee:	3f 91       	pop	r19
     7f0:	2f 91       	pop	r18
     7f2:	1f 91       	pop	r17
     7f4:	0f 90       	pop	r0
     7f6:	0f be       	out	0x3f, r0	; 63
     7f8:	0f 90       	pop	r0
     7fa:	1f 90       	pop	r1
     7fc:	18 95       	reti

000007fe <rfm12_tick>:
     7fe:	80 91 e9 03 	lds	r24, 0x03E9
     802:	88 23       	and	r24, r24
     804:	c9 f5       	brne	.+114    	; 0x878 <rfm12_tick+0x7a>
     806:	8b b7       	in	r24, 0x3b	; 59
     808:	8f 7b       	andi	r24, 0xBF	; 191
     80a:	8b bf       	out	0x3b, r24	; 59
     80c:	80 e0       	ldi	r24, 0x00	; 0
     80e:	90 e0       	ldi	r25, 0x00	; 0
     810:	13 df       	rcall	.-474    	; 0x638 <rfm12_read>
     812:	2b b7       	in	r18, 0x3b	; 59
     814:	20 64       	ori	r18, 0x40	; 64
     816:	2b bf       	out	0x3b, r18	; 59
     818:	90 ff       	sbrs	r25, 0
     81a:	04 c0       	rjmp	.+8      	; 0x824 <rfm12_tick+0x26>
     81c:	88 ec       	ldi	r24, 0xC8	; 200
     81e:	80 93 c5 02 	sts	0x02C5, r24
     822:	08 95       	ret
     824:	80 91 c5 02 	lds	r24, 0x02C5
     828:	81 50       	subi	r24, 0x01	; 1
     82a:	80 93 c5 02 	sts	0x02C5, r24
     82e:	88 23       	and	r24, r24
     830:	19 f5       	brne	.+70     	; 0x878 <rfm12_tick+0x7a>
     832:	81 e0       	ldi	r24, 0x01	; 1
     834:	80 93 c5 02 	sts	0x02C5, r24
     838:	80 91 ea 03 	lds	r24, 0x03EA
     83c:	81 30       	cpi	r24, 0x01	; 1
     83e:	e1 f4       	brne	.+56     	; 0x878 <rfm12_tick+0x7a>
     840:	8b b7       	in	r24, 0x3b	; 59
     842:	8f 7b       	andi	r24, 0xBF	; 191
     844:	8b bf       	out	0x3b, r24	; 59
     846:	81 e0       	ldi	r24, 0x01	; 1
     848:	92 e8       	ldi	r25, 0x82	; 130
     84a:	ed de       	rcall	.-550    	; 0x626 <rfm12_data>
     84c:	80 91 39 04 	lds	r24, 0x0439
     850:	8a 5f       	subi	r24, 0xFA	; 250
     852:	80 93 eb 03 	sts	0x03EB, r24
     856:	10 92 ec 03 	sts	0x03EC, r1
     85a:	82 e0       	ldi	r24, 0x02	; 2
     85c:	80 93 e9 03 	sts	0x03E9, r24
     860:	8a ea       	ldi	r24, 0xAA	; 170
     862:	98 eb       	ldi	r25, 0xB8	; 184
     864:	e0 de       	rcall	.-576    	; 0x626 <rfm12_data>
     866:	8a ea       	ldi	r24, 0xAA	; 170
     868:	98 eb       	ldi	r25, 0xB8	; 184
     86a:	dd de       	rcall	.-582    	; 0x626 <rfm12_data>
     86c:	81 e2       	ldi	r24, 0x21	; 33
     86e:	92 e8       	ldi	r25, 0x82	; 130
     870:	da de       	rcall	.-588    	; 0x626 <rfm12_data>
     872:	8b b7       	in	r24, 0x3b	; 59
     874:	80 64       	ori	r24, 0x40	; 64
     876:	8b bf       	out	0x3b, r24	; 59
     878:	08 95       	ret

0000087a <rfm12_start_tx>:
     87a:	90 91 ea 03 	lds	r25, 0x03EA
     87e:	99 23       	and	r25, r25
     880:	69 f4       	brne	.+26     	; 0x89c <rfm12_start_tx+0x22>
     882:	60 93 39 04 	sts	0x0439, r22
     886:	80 93 3a 04 	sts	0x043A, r24
     88a:	86 27       	eor	r24, r22
     88c:	80 95       	com	r24
     88e:	80 93 3b 04 	sts	0x043B, r24
     892:	81 e0       	ldi	r24, 0x01	; 1
     894:	80 93 ea 03 	sts	0x03EA, r24
     898:	80 e8       	ldi	r24, 0x80	; 128
     89a:	08 95       	ret
     89c:	83 e0       	ldi	r24, 0x03	; 3
     89e:	08 95       	ret

000008a0 <rfm12_tx>:
     8a0:	0f 93       	push	r16
     8a2:	1f 93       	push	r17
     8a4:	18 2f       	mov	r17, r24
     8a6:	06 2f       	mov	r16, r22
     8a8:	8f 31       	cpi	r24, 0x1F	; 31
     8aa:	78 f4       	brcc	.+30     	; 0x8ca <rfm12_tx+0x2a>
     8ac:	80 91 ea 03 	lds	r24, 0x03EA
     8b0:	88 23       	and	r24, r24
     8b2:	69 f4       	brne	.+26     	; 0x8ce <rfm12_tx+0x2e>
     8b4:	2c e3       	ldi	r18, 0x3C	; 60
     8b6:	34 e0       	ldi	r19, 0x04	; 4
     8b8:	c9 01       	movw	r24, r18
     8ba:	ba 01       	movw	r22, r20
     8bc:	41 2f       	mov	r20, r17
     8be:	50 e0       	ldi	r21, 0x00	; 0
     8c0:	f4 d2       	rcall	.+1512   	; 0xeaa <memcpy>
     8c2:	80 2f       	mov	r24, r16
     8c4:	61 2f       	mov	r22, r17
     8c6:	d9 df       	rcall	.-78     	; 0x87a <rfm12_start_tx>
     8c8:	03 c0       	rjmp	.+6      	; 0x8d0 <rfm12_tx+0x30>
     8ca:	82 e0       	ldi	r24, 0x02	; 2
     8cc:	01 c0       	rjmp	.+2      	; 0x8d0 <rfm12_tx+0x30>
     8ce:	83 e0       	ldi	r24, 0x03	; 3
     8d0:	1f 91       	pop	r17
     8d2:	0f 91       	pop	r16
     8d4:	08 95       	ret

000008d6 <rfm12_rx_clear>:
     8d6:	e0 91 ef 03 	lds	r30, 0x03EF
     8da:	f0 91 f0 03 	lds	r31, 0x03F0
     8de:	10 82       	st	Z, r1
     8e0:	80 91 f2 03 	lds	r24, 0x03F2
     8e4:	90 e0       	ldi	r25, 0x00	; 0
     8e6:	01 96       	adiw	r24, 0x01	; 1
     8e8:	81 70       	andi	r24, 0x01	; 1
     8ea:	90 70       	andi	r25, 0x00	; 0
     8ec:	80 93 f2 03 	sts	0x03F2, r24
     8f0:	28 2f       	mov	r18, r24
     8f2:	30 e0       	ldi	r19, 0x00	; 0
     8f4:	c9 01       	movw	r24, r18
     8f6:	88 0f       	add	r24, r24
     8f8:	99 1f       	adc	r25, r25
     8fa:	65 e0       	ldi	r22, 0x05	; 5
     8fc:	22 0f       	add	r18, r18
     8fe:	33 1f       	adc	r19, r19
     900:	6a 95       	dec	r22
     902:	e1 f7       	brne	.-8      	; 0x8fc <rfm12_rx_clear+0x26>
     904:	82 0f       	add	r24, r18
     906:	93 1f       	adc	r25, r19
     908:	8d 50       	subi	r24, 0x0D	; 13
     90a:	9c 4f       	sbci	r25, 0xFC	; 252
     90c:	90 93 f0 03 	sts	0x03F0, r25
     910:	80 93 ef 03 	sts	0x03EF, r24
     914:	08 95       	ret

00000916 <rfm12_init>:
     916:	c2 9a       	sbi	0x18, 2	; 24
     918:	ba 9a       	sbi	0x17, 2	; 23
     91a:	ba de       	rcall	.-652    	; 0x690 <spi_init>
     91c:	87 ed       	ldi	r24, 0xD7	; 215
     91e:	90 e8       	ldi	r25, 0x80	; 128
     920:	82 de       	rcall	.-764    	; 0x626 <rfm12_data>
     922:	81 e0       	ldi	r24, 0x01	; 1
     924:	92 e8       	ldi	r25, 0x82	; 130
     926:	7f de       	rcall	.-770    	; 0x626 <rfm12_data>
     928:	80 eb       	ldi	r24, 0xB0	; 176
     92a:	94 ea       	ldi	r25, 0xA4	; 164
     92c:	7c de       	rcall	.-776    	; 0x626 <rfm12_data>
     92e:	83 e2       	ldi	r24, 0x23	; 35
     930:	96 ec       	ldi	r25, 0xC6	; 198
     932:	79 de       	rcall	.-782    	; 0x626 <rfm12_data>
     934:	8c e2       	ldi	r24, 0x2C	; 44
     936:	94 e9       	ldi	r25, 0x94	; 148
     938:	76 de       	rcall	.-788    	; 0x626 <rfm12_data>
     93a:	8b ea       	ldi	r24, 0xAB	; 171
     93c:	92 ec       	ldi	r25, 0xC2	; 194
     93e:	73 de       	rcall	.-794    	; 0x626 <rfm12_data>
     940:	81 e8       	ldi	r24, 0x81	; 129
     942:	9a ec       	ldi	r25, 0xCA	; 202
     944:	70 de       	rcall	.-800    	; 0x626 <rfm12_data>
     946:	87 ef       	ldi	r24, 0xF7	; 247
     948:	94 ec       	ldi	r25, 0xC4	; 196
     94a:	6d de       	rcall	.-806    	; 0x626 <rfm12_data>
     94c:	80 e7       	ldi	r24, 0x70	; 112
     94e:	98 e9       	ldi	r25, 0x98	; 152
     950:	6a de       	rcall	.-812    	; 0x626 <rfm12_data>
     952:	80 e0       	ldi	r24, 0x00	; 0
     954:	98 ec       	ldi	r25, 0xC8	; 200
     956:	67 de       	rcall	.-818    	; 0x626 <rfm12_data>
     958:	80 e0       	ldi	r24, 0x00	; 0
     95a:	90 ee       	ldi	r25, 0xE0	; 224
     95c:	64 de       	rcall	.-824    	; 0x626 <rfm12_data>
     95e:	8d e2       	ldi	r24, 0x2D	; 45
     960:	80 93 37 04 	sts	0x0437, r24
     964:	84 ed       	ldi	r24, 0xD4	; 212
     966:	80 93 38 04 	sts	0x0438, r24
     96a:	83 ef       	ldi	r24, 0xF3	; 243
     96c:	93 e0       	ldi	r25, 0x03	; 3
     96e:	90 93 f0 03 	sts	0x03F0, r25
     972:	80 93 ef 03 	sts	0x03EF, r24
     976:	90 93 ee 03 	sts	0x03EE, r25
     97a:	80 93 ed 03 	sts	0x03ED, r24
     97e:	81 e8       	ldi	r24, 0x81	; 129
     980:	92 e8       	ldi	r25, 0x82	; 130
     982:	51 de       	rcall	.-862    	; 0x626 <rfm12_data>
     984:	85 b7       	in	r24, 0x35	; 53
     986:	82 60       	ori	r24, 0x02	; 2
     988:	85 bf       	out	0x35, r24	; 53
     98a:	80 e0       	ldi	r24, 0x00	; 0
     98c:	90 e0       	ldi	r25, 0x00	; 0
     98e:	54 de       	rcall	.-856    	; 0x638 <rfm12_read>
     990:	8a b7       	in	r24, 0x3a	; 58
     992:	80 64       	ori	r24, 0x40	; 64
     994:	8a bf       	out	0x3a, r24	; 58
     996:	81 e8       	ldi	r24, 0x81	; 129
     998:	9a ec       	ldi	r25, 0xCA	; 202
     99a:	45 de       	rcall	.-886    	; 0x626 <rfm12_data>
     99c:	83 e8       	ldi	r24, 0x83	; 131
     99e:	9a ec       	ldi	r25, 0xCA	; 202
     9a0:	42 de       	rcall	.-892    	; 0x626 <rfm12_data>
     9a2:	8b b7       	in	r24, 0x3b	; 59
     9a4:	80 64       	ori	r24, 0x40	; 64
     9a6:	8b bf       	out	0x3b, r24	; 59
     9a8:	08 95       	ret

000009aa <generate_data>:
     9aa:	fc 01       	movw	r30, r24
     9ac:	80 91 dc 02 	lds	r24, 0x02DC
     9b0:	8f 5f       	subi	r24, 0xFF	; 255
     9b2:	80 93 dc 02 	sts	0x02DC, r24
     9b6:	91 e0       	ldi	r25, 0x01	; 1
     9b8:	db 01       	movw	r26, r22
     9ba:	9c 93       	st	X, r25
     9bc:	80 83       	st	Z, r24
     9be:	11 82       	std	Z+1, r1	; 0x01
     9c0:	80 e0       	ldi	r24, 0x00	; 0
     9c2:	08 95       	ret

000009c4 <main>:
     9c4:	cf 93       	push	r28
     9c6:	df 93       	push	r29
     9c8:	b9 98       	cbi	0x17, 1	; 23
     9ca:	9e d0       	rcall	.+316    	; 0xb08 <uart_init>
     9cc:	c5 db       	rcall	.-2166   	; 0x158 <proto_init>
     9ce:	78 94       	sei
     9d0:	86 ec       	ldi	r24, 0xC6	; 198
     9d2:	92 e0       	ldi	r25, 0x02	; 2
     9d4:	03 d1       	rcall	.+518    	; 0xbdc <uart_putstr>
     9d6:	86 b3       	in	r24, 0x16	; 22
     9d8:	82 70       	andi	r24, 0x02	; 2
     9da:	d4 db       	rcall	.-2136   	; 0x184 <proto_setup>
     9dc:	c0 e0       	ldi	r28, 0x00	; 0
     9de:	d0 e0       	ldi	r29, 0x00	; 0
     9e0:	21 96       	adiw	r28, 0x01	; 1
     9e2:	ec dc       	rcall	.-1576   	; 0x3bc <proto_cycle>
     9e4:	20 97       	sbiw	r28, 0x00	; 0
     9e6:	e1 f7       	brne	.-8      	; 0x9e0 <main+0x1c>
     9e8:	8a dd       	rcall	.-1260   	; 0x4fe <proto_get_tx_data>
     9ea:	00 97       	sbiw	r24, 0x00	; 0
     9ec:	c9 f3       	breq	.-14     	; 0x9e0 <main+0x1c>
     9ee:	20 91 dc 02 	lds	r18, 0x02DC
     9f2:	2f 5f       	subi	r18, 0xFF	; 255
     9f4:	20 93 dc 02 	sts	0x02DC, r18
     9f8:	fc 01       	movw	r30, r24
     9fa:	20 83       	st	Z, r18
     9fc:	11 82       	std	Z+1, r1	; 0x01
     9fe:	61 e0       	ldi	r22, 0x01	; 1
     a00:	b3 dd       	rcall	.-1178   	; 0x568 <proto_tx_data>
     a02:	ee cf       	rjmp	.-36     	; 0x9e0 <main+0x1c>

00000a04 <__vector_12>:
     a04:	1f 92       	push	r1
     a06:	0f 92       	push	r0
     a08:	0f b6       	in	r0, 0x3f	; 63
     a0a:	0f 92       	push	r0
     a0c:	11 24       	eor	r1, r1
     a0e:	2f 93       	push	r18
     a10:	3f 93       	push	r19
     a12:	8f 93       	push	r24
     a14:	9f 93       	push	r25
     a16:	ef 93       	push	r30
     a18:	ff 93       	push	r31
     a1a:	20 91 13 03 	lds	r18, 0x0313
     a1e:	30 91 14 03 	lds	r19, 0x0314
     a22:	80 91 15 03 	lds	r24, 0x0315
     a26:	90 91 16 03 	lds	r25, 0x0316
     a2a:	28 17       	cp	r18, r24
     a2c:	39 07       	cpc	r19, r25
     a2e:	11 f4       	brne	.+4      	; 0xa34 <__vector_12+0x30>
     a30:	55 98       	cbi	0x0a, 5	; 10
     a32:	1c c0       	rjmp	.+56     	; 0xa6c <__vector_12+0x68>
     a34:	e0 91 15 03 	lds	r30, 0x0315
     a38:	f0 91 16 03 	lds	r31, 0x0316
     a3c:	80 81       	ld	r24, Z
     a3e:	8c b9       	out	0x0c, r24	; 12
     a40:	80 91 15 03 	lds	r24, 0x0315
     a44:	90 91 16 03 	lds	r25, 0x0316
     a48:	01 96       	adiw	r24, 0x01	; 1
     a4a:	90 93 16 03 	sts	0x0316, r25
     a4e:	80 93 15 03 	sts	0x0315, r24
     a52:	80 91 15 03 	lds	r24, 0x0315
     a56:	90 91 16 03 	lds	r25, 0x0316
     a5a:	23 e0       	ldi	r18, 0x03	; 3
     a5c:	89 34       	cpi	r24, 0x49	; 73
     a5e:	92 07       	cpc	r25, r18
     a60:	29 f4       	brne	.+10     	; 0xa6c <__vector_12+0x68>
     a62:	c2 97       	sbiw	r24, 0x32	; 50
     a64:	90 93 16 03 	sts	0x0316, r25
     a68:	80 93 15 03 	sts	0x0315, r24
     a6c:	ff 91       	pop	r31
     a6e:	ef 91       	pop	r30
     a70:	9f 91       	pop	r25
     a72:	8f 91       	pop	r24
     a74:	3f 91       	pop	r19
     a76:	2f 91       	pop	r18
     a78:	0f 90       	pop	r0
     a7a:	0f be       	out	0x3f, r0	; 63
     a7c:	0f 90       	pop	r0
     a7e:	1f 90       	pop	r1
     a80:	18 95       	reti

00000a82 <__vector_11>:
     a82:	1f 92       	push	r1
     a84:	0f 92       	push	r0
     a86:	0f b6       	in	r0, 0x3f	; 63
     a88:	0f 92       	push	r0
     a8a:	11 24       	eor	r1, r1
     a8c:	2f 93       	push	r18
     a8e:	3f 93       	push	r19
     a90:	8f 93       	push	r24
     a92:	9f 93       	push	r25
     a94:	ef 93       	push	r30
     a96:	ff 93       	push	r31
     a98:	80 91 dd 02 	lds	r24, 0x02DD
     a9c:	90 91 de 02 	lds	r25, 0x02DE
     aa0:	20 91 df 02 	lds	r18, 0x02DF
     aa4:	30 91 e0 02 	lds	r19, 0x02E0
     aa8:	82 1b       	sub	r24, r18
     aaa:	93 0b       	sbc	r25, r19
     aac:	97 fd       	sbrc	r25, 7
     aae:	c2 96       	adiw	r24, 0x32	; 50
     ab0:	81 33       	cpi	r24, 0x31	; 49
     ab2:	91 05       	cpc	r25, r1
     ab4:	ec f4       	brge	.+58     	; 0xaf0 <__vector_11+0x6e>
     ab6:	e0 91 dd 02 	lds	r30, 0x02DD
     aba:	f0 91 de 02 	lds	r31, 0x02DE
     abe:	8c b1       	in	r24, 0x0c	; 12
     ac0:	80 83       	st	Z, r24
     ac2:	80 91 dd 02 	lds	r24, 0x02DD
     ac6:	90 91 de 02 	lds	r25, 0x02DE
     aca:	01 96       	adiw	r24, 0x01	; 1
     acc:	90 93 de 02 	sts	0x02DE, r25
     ad0:	80 93 dd 02 	sts	0x02DD, r24
     ad4:	80 91 dd 02 	lds	r24, 0x02DD
     ad8:	90 91 de 02 	lds	r25, 0x02DE
     adc:	23 e0       	ldi	r18, 0x03	; 3
     ade:	83 31       	cpi	r24, 0x13	; 19
     ae0:	92 07       	cpc	r25, r18
     ae2:	39 f4       	brne	.+14     	; 0xaf2 <__vector_11+0x70>
     ae4:	c2 97       	sbiw	r24, 0x32	; 50
     ae6:	90 93 de 02 	sts	0x02DE, r25
     aea:	80 93 dd 02 	sts	0x02DD, r24
     aee:	01 c0       	rjmp	.+2      	; 0xaf2 <__vector_11+0x70>
     af0:	8c b1       	in	r24, 0x0c	; 12
     af2:	ff 91       	pop	r31
     af4:	ef 91       	pop	r30
     af6:	9f 91       	pop	r25
     af8:	8f 91       	pop	r24
     afa:	3f 91       	pop	r19
     afc:	2f 91       	pop	r18
     afe:	0f 90       	pop	r0
     b00:	0f be       	out	0x3f, r0	; 63
     b02:	0f 90       	pop	r0
     b04:	1f 90       	pop	r1
     b06:	18 95       	reti

00000b08 <uart_init>:
     b08:	90 9a       	sbi	0x12, 0	; 18
     b0a:	53 9a       	sbi	0x0a, 3	; 10
     b0c:	80 b5       	in	r24, 0x20	; 32
     b0e:	86 68       	ori	r24, 0x86	; 134
     b10:	80 bd       	out	0x20, r24	; 32
     b12:	54 9a       	sbi	0x0a, 4	; 10
     b14:	10 bc       	out	0x20, r1	; 32
     b16:	86 e2       	ldi	r24, 0x26	; 38
     b18:	89 b9       	out	0x09, r24	; 9
     b1a:	81 ee       	ldi	r24, 0xE1	; 225
     b1c:	92 e0       	ldi	r25, 0x02	; 2
     b1e:	90 93 e0 02 	sts	0x02E0, r25
     b22:	80 93 df 02 	sts	0x02DF, r24
     b26:	80 91 df 02 	lds	r24, 0x02DF
     b2a:	90 91 e0 02 	lds	r25, 0x02E0
     b2e:	90 93 de 02 	sts	0x02DE, r25
     b32:	80 93 dd 02 	sts	0x02DD, r24
     b36:	87 e1       	ldi	r24, 0x17	; 23
     b38:	93 e0       	ldi	r25, 0x03	; 3
     b3a:	90 93 16 03 	sts	0x0316, r25
     b3e:	80 93 15 03 	sts	0x0315, r24
     b42:	80 91 15 03 	lds	r24, 0x0315
     b46:	90 91 16 03 	lds	r25, 0x0316
     b4a:	90 93 14 03 	sts	0x0314, r25
     b4e:	80 93 13 03 	sts	0x0313, r24
     b52:	57 9a       	sbi	0x0a, 7	; 10
     b54:	08 95       	ret

00000b56 <uart_putc>:
     b56:	df 93       	push	r29
     b58:	cf 93       	push	r28
     b5a:	00 d0       	rcall	.+0      	; 0xb5c <uart_putc+0x6>
     b5c:	cd b7       	in	r28, 0x3d	; 61
     b5e:	de b7       	in	r29, 0x3e	; 62
     b60:	20 91 13 03 	lds	r18, 0x0313
     b64:	30 91 14 03 	lds	r19, 0x0314
     b68:	40 91 15 03 	lds	r20, 0x0315
     b6c:	50 91 16 03 	lds	r21, 0x0316
     b70:	24 1b       	sub	r18, r20
     b72:	35 0b       	sbc	r19, r21
     b74:	3a 83       	std	Y+2, r19	; 0x02
     b76:	29 83       	std	Y+1, r18	; 0x01
     b78:	29 81       	ldd	r18, Y+1	; 0x01
     b7a:	3a 81       	ldd	r19, Y+2	; 0x02
     b7c:	37 ff       	sbrs	r19, 7
     b7e:	06 c0       	rjmp	.+12     	; 0xb8c <uart_putc+0x36>
     b80:	29 81       	ldd	r18, Y+1	; 0x01
     b82:	3a 81       	ldd	r19, Y+2	; 0x02
     b84:	2e 5c       	subi	r18, 0xCE	; 206
     b86:	3f 4f       	sbci	r19, 0xFF	; 255
     b88:	3a 83       	std	Y+2, r19	; 0x02
     b8a:	29 83       	std	Y+1, r18	; 0x01
     b8c:	29 81       	ldd	r18, Y+1	; 0x01
     b8e:	3a 81       	ldd	r19, Y+2	; 0x02
     b90:	21 33       	cpi	r18, 0x31	; 49
     b92:	31 05       	cpc	r19, r1
     b94:	2c f7       	brge	.-54     	; 0xb60 <uart_putc+0xa>
     b96:	f8 94       	cli
     b98:	e0 91 13 03 	lds	r30, 0x0313
     b9c:	f0 91 14 03 	lds	r31, 0x0314
     ba0:	80 83       	st	Z, r24
     ba2:	80 91 13 03 	lds	r24, 0x0313
     ba6:	90 91 14 03 	lds	r25, 0x0314
     baa:	01 96       	adiw	r24, 0x01	; 1
     bac:	90 93 14 03 	sts	0x0314, r25
     bb0:	80 93 13 03 	sts	0x0313, r24
     bb4:	80 91 13 03 	lds	r24, 0x0313
     bb8:	90 91 14 03 	lds	r25, 0x0314
     bbc:	23 e0       	ldi	r18, 0x03	; 3
     bbe:	89 34       	cpi	r24, 0x49	; 73
     bc0:	92 07       	cpc	r25, r18
     bc2:	29 f4       	brne	.+10     	; 0xbce <uart_putc+0x78>
     bc4:	c2 97       	sbiw	r24, 0x32	; 50
     bc6:	90 93 14 03 	sts	0x0314, r25
     bca:	80 93 13 03 	sts	0x0313, r24
     bce:	55 9a       	sbi	0x0a, 5	; 10
     bd0:	78 94       	sei
     bd2:	0f 90       	pop	r0
     bd4:	0f 90       	pop	r0
     bd6:	cf 91       	pop	r28
     bd8:	df 91       	pop	r29
     bda:	08 95       	ret

00000bdc <uart_putstr>:
     bdc:	ef 92       	push	r14
     bde:	ff 92       	push	r15
     be0:	cf 93       	push	r28
     be2:	df 93       	push	r29
     be4:	e8 2e       	mov	r14, r24
     be6:	e7 01       	movw	r28, r14
     be8:	7e 01       	movw	r14, r28
     bea:	f9 2e       	mov	r15, r25
     bec:	e7 01       	movw	r28, r14
     bee:	01 c0       	rjmp	.+2      	; 0xbf2 <uart_putstr+0x16>
     bf0:	b2 df       	rcall	.-156    	; 0xb56 <uart_putc>
     bf2:	89 91       	ld	r24, Y+
     bf4:	88 23       	and	r24, r24
     bf6:	e1 f7       	brne	.-8      	; 0xbf0 <uart_putstr+0x14>
     bf8:	df 91       	pop	r29
     bfa:	cf 91       	pop	r28
     bfc:	ff 90       	pop	r15
     bfe:	ef 90       	pop	r14
     c00:	08 95       	ret

00000c02 <uart_putstr_P>:
     c02:	cf 93       	push	r28
     c04:	df 93       	push	r29
     c06:	ec 01       	movw	r28, r24
     c08:	02 c0       	rjmp	.+4      	; 0xc0e <uart_putstr_P+0xc>
     c0a:	a5 df       	rcall	.-182    	; 0xb56 <uart_putc>
     c0c:	21 96       	adiw	r28, 0x01	; 1
     c0e:	fe 01       	movw	r30, r28
     c10:	84 91       	lpm	r24, Z+
     c12:	88 23       	and	r24, r24
     c14:	d1 f7       	brne	.-12     	; 0xc0a <uart_putstr_P+0x8>
     c16:	df 91       	pop	r29
     c18:	cf 91       	pop	r28
     c1a:	08 95       	ret

00000c1c <uart_hexdump>:
     c1c:	bf 92       	push	r11
     c1e:	cf 92       	push	r12
     c20:	df 92       	push	r13
     c22:	ef 92       	push	r14
     c24:	ff 92       	push	r15
     c26:	0f 93       	push	r16
     c28:	1f 93       	push	r17
     c2a:	df 93       	push	r29
     c2c:	cf 93       	push	r28
     c2e:	00 d0       	rcall	.+0      	; 0xc30 <uart_hexdump+0x14>
     c30:	0f 92       	push	r0
     c32:	cd b7       	in	r28, 0x3d	; 61
     c34:	de b7       	in	r29, 0x3e	; 62
     c36:	6c 01       	movw	r12, r24
     c38:	06 2f       	mov	r16, r22
     c3a:	17 2f       	mov	r17, r23
     c3c:	bb 24       	eor	r11, r11
     c3e:	7e 01       	movw	r14, r28
     c40:	08 94       	sec
     c42:	e1 1c       	adc	r14, r1
     c44:	f1 1c       	adc	r15, r1
     c46:	1b c0       	rjmp	.+54     	; 0xc7e <uart_hexdump+0x62>
     c48:	f6 01       	movw	r30, r12
     c4a:	81 91       	ld	r24, Z+
     c4c:	6f 01       	movw	r12, r30
     c4e:	90 e0       	ldi	r25, 0x00	; 0
     c50:	b7 01       	movw	r22, r14
     c52:	40 e1       	ldi	r20, 0x10	; 16
     c54:	50 e0       	ldi	r21, 0x00	; 0
     c56:	39 d1       	rcall	.+626    	; 0xeca <itoa>
     c58:	8a 81       	ldd	r24, Y+2	; 0x02
     c5a:	88 23       	and	r24, r24
     c5c:	11 f4       	brne	.+4      	; 0xc62 <uart_hexdump+0x46>
     c5e:	80 e2       	ldi	r24, 0x20	; 32
     c60:	7a df       	rcall	.-268    	; 0xb56 <uart_putc>
     c62:	c7 01       	movw	r24, r14
     c64:	bb df       	rcall	.-138    	; 0xbdc <uart_putstr>
     c66:	80 e2       	ldi	r24, 0x20	; 32
     c68:	76 df       	rcall	.-276    	; 0xb56 <uart_putc>
     c6a:	b3 94       	inc	r11
     c6c:	fb 2d       	mov	r31, r11
     c6e:	f0 31       	cpi	r31, 0x10	; 16
     c70:	21 f4       	brne	.+8      	; 0xc7a <uart_hexdump+0x5e>
     c72:	86 e2       	ldi	r24, 0x26	; 38
     c74:	90 e0       	ldi	r25, 0x00	; 0
     c76:	c5 df       	rcall	.-118    	; 0xc02 <uart_putstr_P>
     c78:	bb 24       	eor	r11, r11
     c7a:	01 50       	subi	r16, 0x01	; 1
     c7c:	10 40       	sbci	r17, 0x00	; 0
     c7e:	01 15       	cp	r16, r1
     c80:	11 05       	cpc	r17, r1
     c82:	11 f7       	brne	.-60     	; 0xc48 <uart_hexdump+0x2c>
     c84:	0f 90       	pop	r0
     c86:	0f 90       	pop	r0
     c88:	0f 90       	pop	r0
     c8a:	cf 91       	pop	r28
     c8c:	df 91       	pop	r29
     c8e:	1f 91       	pop	r17
     c90:	0f 91       	pop	r16
     c92:	ff 90       	pop	r15
     c94:	ef 90       	pop	r14
     c96:	df 90       	pop	r13
     c98:	cf 90       	pop	r12
     c9a:	bf 90       	pop	r11
     c9c:	08 95       	ret

00000c9e <uart_getc>:
     c9e:	20 91 dd 02 	lds	r18, 0x02DD
     ca2:	30 91 de 02 	lds	r19, 0x02DE
     ca6:	80 91 df 02 	lds	r24, 0x02DF
     caa:	90 91 e0 02 	lds	r25, 0x02E0
     cae:	28 17       	cp	r18, r24
     cb0:	39 07       	cpc	r19, r25
     cb2:	a9 f3       	breq	.-22     	; 0xc9e <uart_getc>
     cb4:	e0 91 df 02 	lds	r30, 0x02DF
     cb8:	f0 91 e0 02 	lds	r31, 0x02E0
     cbc:	80 81       	ld	r24, Z
     cbe:	20 91 df 02 	lds	r18, 0x02DF
     cc2:	30 91 e0 02 	lds	r19, 0x02E0
     cc6:	2f 5f       	subi	r18, 0xFF	; 255
     cc8:	3f 4f       	sbci	r19, 0xFF	; 255
     cca:	30 93 e0 02 	sts	0x02E0, r19
     cce:	20 93 df 02 	sts	0x02DF, r18
     cd2:	20 91 df 02 	lds	r18, 0x02DF
     cd6:	30 91 e0 02 	lds	r19, 0x02E0
     cda:	93 e0       	ldi	r25, 0x03	; 3
     cdc:	23 31       	cpi	r18, 0x13	; 19
     cde:	39 07       	cpc	r19, r25
     ce0:	31 f4       	brne	.+12     	; 0xcee <uart_getc+0x50>
     ce2:	22 53       	subi	r18, 0x32	; 50
     ce4:	30 40       	sbci	r19, 0x00	; 0
     ce6:	30 93 e0 02 	sts	0x02E0, r19
     cea:	20 93 df 02 	sts	0x02DF, r18
     cee:	08 95       	ret

00000cf0 <uart_getc_nb>:
     cf0:	40 91 dd 02 	lds	r20, 0x02DD
     cf4:	50 91 de 02 	lds	r21, 0x02DE
     cf8:	20 91 df 02 	lds	r18, 0x02DF
     cfc:	30 91 e0 02 	lds	r19, 0x02E0
     d00:	42 17       	cp	r20, r18
     d02:	53 07       	cpc	r21, r19
     d04:	f9 f0       	breq	.+62     	; 0xd44 <uart_getc_nb+0x54>
     d06:	e0 91 df 02 	lds	r30, 0x02DF
     d0a:	f0 91 e0 02 	lds	r31, 0x02E0
     d0e:	20 81       	ld	r18, Z
     d10:	fc 01       	movw	r30, r24
     d12:	20 83       	st	Z, r18
     d14:	80 91 df 02 	lds	r24, 0x02DF
     d18:	90 91 e0 02 	lds	r25, 0x02E0
     d1c:	01 96       	adiw	r24, 0x01	; 1
     d1e:	90 93 e0 02 	sts	0x02E0, r25
     d22:	80 93 df 02 	sts	0x02DF, r24
     d26:	80 91 df 02 	lds	r24, 0x02DF
     d2a:	90 91 e0 02 	lds	r25, 0x02E0
     d2e:	f3 e0       	ldi	r31, 0x03	; 3
     d30:	83 31       	cpi	r24, 0x13	; 19
     d32:	9f 07       	cpc	r25, r31
     d34:	49 f4       	brne	.+18     	; 0xd48 <uart_getc_nb+0x58>
     d36:	c2 97       	sbiw	r24, 0x32	; 50
     d38:	90 93 e0 02 	sts	0x02E0, r25
     d3c:	80 93 df 02 	sts	0x02DF, r24
     d40:	81 e0       	ldi	r24, 0x01	; 1
     d42:	08 95       	ret
     d44:	80 e0       	ldi	r24, 0x00	; 0
     d46:	08 95       	ret
     d48:	81 e0       	ldi	r24, 0x01	; 1
     d4a:	08 95       	ret

00000d4c <uart_getline>:
     d4c:	cf 92       	push	r12
     d4e:	df 92       	push	r13
     d50:	ff 92       	push	r15
     d52:	0f 93       	push	r16
     d54:	1f 93       	push	r17
     d56:	df 93       	push	r29
     d58:	cf 93       	push	r28
     d5a:	0f 92       	push	r0
     d5c:	cd b7       	in	r28, 0x3d	; 61
     d5e:	de b7       	in	r29, 0x3e	; 62
     d60:	6c 01       	movw	r12, r24
     d62:	fc 01       	movw	r30, r24
     d64:	10 82       	st	Z, r1
     d66:	8c 01       	movw	r16, r24
     d68:	04 c0       	rjmp	.+8      	; 0xd72 <uart_getline+0x26>
     d6a:	f8 01       	movw	r30, r16
     d6c:	81 93       	st	Z+, r24
     d6e:	8f 01       	movw	r16, r30
     d70:	61 50       	subi	r22, 0x01	; 1
     d72:	f0 2e       	mov	r15, r16
     d74:	fc 18       	sub	r15, r12
     d76:	69 83       	std	Y+1, r22	; 0x01
     d78:	92 df       	rcall	.-220    	; 0xc9e <uart_getc>
     d7a:	69 81       	ldd	r22, Y+1	; 0x01
     d7c:	88 23       	and	r24, r24
     d7e:	21 f0       	breq	.+8      	; 0xd88 <uart_getline+0x3c>
     d80:	8d 30       	cpi	r24, 0x0D	; 13
     d82:	11 f0       	breq	.+4      	; 0xd88 <uart_getline+0x3c>
     d84:	66 23       	and	r22, r22
     d86:	89 f7       	brne	.-30     	; 0xd6a <uart_getline+0x1e>
     d88:	8f 2d       	mov	r24, r15
     d8a:	0f 90       	pop	r0
     d8c:	cf 91       	pop	r28
     d8e:	df 91       	pop	r29
     d90:	1f 91       	pop	r17
     d92:	0f 91       	pop	r16
     d94:	ff 90       	pop	r15
     d96:	df 90       	pop	r13
     d98:	cf 90       	pop	r12
     d9a:	08 95       	ret

00000d9c <uart_getline_nb>:
     d9c:	cf 92       	push	r12
     d9e:	df 92       	push	r13
     da0:	ff 92       	push	r15
     da2:	0f 93       	push	r16
     da4:	1f 93       	push	r17
     da6:	cf 93       	push	r28
     da8:	df 93       	push	r29
     daa:	8c 01       	movw	r16, r24
     dac:	fc 01       	movw	r30, r24
     dae:	10 82       	st	Z, r1
     db0:	ec 01       	movw	r28, r24
     db2:	fc 2e       	mov	r15, r28
     db4:	ce 01       	movw	r24, r28
     db6:	9c df       	rcall	.-200    	; 0xcf0 <uart_getc_nb>
     db8:	88 23       	and	r24, r24
     dba:	19 f0       	breq	.+6      	; 0xdc2 <uart_getline_nb+0x26>
     dbc:	89 91       	ld	r24, Y+
     dbe:	8d 30       	cpi	r24, 0x0D	; 13
     dc0:	c1 f7       	brne	.-16     	; 0xdb2 <uart_getline_nb+0x16>
     dc2:	8f 2d       	mov	r24, r15
     dc4:	80 1b       	sub	r24, r16
     dc6:	df 91       	pop	r29
     dc8:	cf 91       	pop	r28
     dca:	1f 91       	pop	r17
     dcc:	0f 91       	pop	r16
     dce:	ff 90       	pop	r15
     dd0:	df 90       	pop	r13
     dd2:	cf 90       	pop	r12
     dd4:	08 95       	ret

00000dd6 <uart_collectline>:
     dd6:	0f 93       	push	r16
     dd8:	1f 93       	push	r17
     dda:	cf 93       	push	r28
     ddc:	df 93       	push	r29
     dde:	ec 01       	movw	r28, r24
     de0:	c6 0f       	add	r28, r22
     de2:	d1 1d       	adc	r29, r1
     de4:	8e 01       	movw	r16, r28
     de6:	ce 01       	movw	r24, r28
     de8:	83 df       	rcall	.-250    	; 0xcf0 <uart_getc_nb>
     dea:	88 23       	and	r24, r24
     dec:	19 f0       	breq	.+6      	; 0xdf4 <uart_collectline+0x1e>
     dee:	89 91       	ld	r24, Y+
     df0:	8d 30       	cpi	r24, 0x0D	; 13
     df2:	c1 f7       	brne	.-16     	; 0xde4 <uart_collectline+0xe>
     df4:	81 e0       	ldi	r24, 0x01	; 1
     df6:	f8 01       	movw	r30, r16
     df8:	90 81       	ld	r25, Z
     dfa:	9d 30       	cpi	r25, 0x0D	; 13
     dfc:	09 f0       	breq	.+2      	; 0xe00 <uart_collectline+0x2a>
     dfe:	80 e0       	ldi	r24, 0x00	; 0
     e00:	df 91       	pop	r29
     e02:	cf 91       	pop	r28
     e04:	1f 91       	pop	r17
     e06:	0f 91       	pop	r16
     e08:	08 95       	ret

00000e0a <__udivmodqi4>:
     e0a:	99 1b       	sub	r25, r25
     e0c:	79 e0       	ldi	r23, 0x09	; 9
     e0e:	04 c0       	rjmp	.+8      	; 0xe18 <__udivmodqi4_ep>

00000e10 <__udivmodqi4_loop>:
     e10:	99 1f       	adc	r25, r25
     e12:	96 17       	cp	r25, r22
     e14:	08 f0       	brcs	.+2      	; 0xe18 <__udivmodqi4_ep>
     e16:	96 1b       	sub	r25, r22

00000e18 <__udivmodqi4_ep>:
     e18:	88 1f       	adc	r24, r24
     e1a:	7a 95       	dec	r23
     e1c:	c9 f7       	brne	.-14     	; 0xe10 <__udivmodqi4_loop>
     e1e:	80 95       	com	r24
     e20:	08 95       	ret

00000e22 <__divmodhi4>:
     e22:	97 fb       	bst	r25, 7
     e24:	09 2e       	mov	r0, r25
     e26:	07 26       	eor	r0, r23
     e28:	0a d0       	rcall	.+20     	; 0xe3e <__divmodhi4_neg1>
     e2a:	77 fd       	sbrc	r23, 7
     e2c:	04 d0       	rcall	.+8      	; 0xe36 <__divmodhi4_neg2>
     e2e:	0c d0       	rcall	.+24     	; 0xe48 <__udivmodhi4>
     e30:	06 d0       	rcall	.+12     	; 0xe3e <__divmodhi4_neg1>
     e32:	00 20       	and	r0, r0
     e34:	1a f4       	brpl	.+6      	; 0xe3c <__divmodhi4_exit>

00000e36 <__divmodhi4_neg2>:
     e36:	70 95       	com	r23
     e38:	61 95       	neg	r22
     e3a:	7f 4f       	sbci	r23, 0xFF	; 255

00000e3c <__divmodhi4_exit>:
     e3c:	08 95       	ret

00000e3e <__divmodhi4_neg1>:
     e3e:	f6 f7       	brtc	.-4      	; 0xe3c <__divmodhi4_exit>
     e40:	90 95       	com	r25
     e42:	81 95       	neg	r24
     e44:	9f 4f       	sbci	r25, 0xFF	; 255
     e46:	08 95       	ret

00000e48 <__udivmodhi4>:
     e48:	aa 1b       	sub	r26, r26
     e4a:	bb 1b       	sub	r27, r27
     e4c:	51 e1       	ldi	r21, 0x11	; 17
     e4e:	07 c0       	rjmp	.+14     	; 0xe5e <__udivmodhi4_ep>

00000e50 <__udivmodhi4_loop>:
     e50:	aa 1f       	adc	r26, r26
     e52:	bb 1f       	adc	r27, r27
     e54:	a6 17       	cp	r26, r22
     e56:	b7 07       	cpc	r27, r23
     e58:	10 f0       	brcs	.+4      	; 0xe5e <__udivmodhi4_ep>
     e5a:	a6 1b       	sub	r26, r22
     e5c:	b7 0b       	sbc	r27, r23

00000e5e <__udivmodhi4_ep>:
     e5e:	88 1f       	adc	r24, r24
     e60:	99 1f       	adc	r25, r25
     e62:	5a 95       	dec	r21
     e64:	a9 f7       	brne	.-22     	; 0xe50 <__udivmodhi4_loop>
     e66:	80 95       	com	r24
     e68:	90 95       	com	r25
     e6a:	bc 01       	movw	r22, r24
     e6c:	cd 01       	movw	r24, r26
     e6e:	08 95       	ret

00000e70 <atoi>:
     e70:	fc 01       	movw	r30, r24
     e72:	88 27       	eor	r24, r24
     e74:	99 27       	eor	r25, r25
     e76:	e8 94       	clt
     e78:	21 91       	ld	r18, Z+
     e7a:	20 32       	cpi	r18, 0x20	; 32
     e7c:	e9 f3       	breq	.-6      	; 0xe78 <atoi+0x8>
     e7e:	29 30       	cpi	r18, 0x09	; 9
     e80:	10 f0       	brcs	.+4      	; 0xe86 <atoi+0x16>
     e82:	2e 30       	cpi	r18, 0x0E	; 14
     e84:	c8 f3       	brcs	.-14     	; 0xe78 <atoi+0x8>
     e86:	2b 32       	cpi	r18, 0x2B	; 43
     e88:	39 f0       	breq	.+14     	; 0xe98 <atoi+0x28>
     e8a:	2d 32       	cpi	r18, 0x2D	; 45
     e8c:	31 f4       	brne	.+12     	; 0xe9a <atoi+0x2a>
     e8e:	68 94       	set
     e90:	03 c0       	rjmp	.+6      	; 0xe98 <atoi+0x28>
     e92:	3a d0       	rcall	.+116    	; 0xf08 <__mulhi_const_10>
     e94:	82 0f       	add	r24, r18
     e96:	91 1d       	adc	r25, r1
     e98:	21 91       	ld	r18, Z+
     e9a:	20 53       	subi	r18, 0x30	; 48
     e9c:	2a 30       	cpi	r18, 0x0A	; 10
     e9e:	c8 f3       	brcs	.-14     	; 0xe92 <atoi+0x22>
     ea0:	1e f4       	brtc	.+6      	; 0xea8 <atoi+0x38>
     ea2:	90 95       	com	r25
     ea4:	81 95       	neg	r24
     ea6:	9f 4f       	sbci	r25, 0xFF	; 255
     ea8:	08 95       	ret

00000eaa <memcpy>:
     eaa:	fb 01       	movw	r30, r22
     eac:	dc 01       	movw	r26, r24
     eae:	02 c0       	rjmp	.+4      	; 0xeb4 <memcpy+0xa>
     eb0:	01 90       	ld	r0, Z+
     eb2:	0d 92       	st	X+, r0
     eb4:	41 50       	subi	r20, 0x01	; 1
     eb6:	50 40       	sbci	r21, 0x00	; 0
     eb8:	d8 f7       	brcc	.-10     	; 0xeb0 <memcpy+0x6>
     eba:	08 95       	ret

00000ebc <memset>:
     ebc:	dc 01       	movw	r26, r24
     ebe:	01 c0       	rjmp	.+2      	; 0xec2 <memset+0x6>
     ec0:	6d 93       	st	X+, r22
     ec2:	41 50       	subi	r20, 0x01	; 1
     ec4:	50 40       	sbci	r21, 0x00	; 0
     ec6:	e0 f7       	brcc	.-8      	; 0xec0 <memset+0x4>
     ec8:	08 95       	ret

00000eca <itoa>:
     eca:	fb 01       	movw	r30, r22
     ecc:	9f 01       	movw	r18, r30
     ece:	e8 94       	clt
     ed0:	42 30       	cpi	r20, 0x02	; 2
     ed2:	bc f0       	brlt	.+46     	; 0xf02 <itoa+0x38>
     ed4:	45 32       	cpi	r20, 0x25	; 37
     ed6:	ac f4       	brge	.+42     	; 0xf02 <itoa+0x38>
     ed8:	4a 30       	cpi	r20, 0x0A	; 10
     eda:	29 f4       	brne	.+10     	; 0xee6 <itoa+0x1c>
     edc:	97 fb       	bst	r25, 7
     ede:	1e f4       	brtc	.+6      	; 0xee6 <itoa+0x1c>
     ee0:	90 95       	com	r25
     ee2:	81 95       	neg	r24
     ee4:	9f 4f       	sbci	r25, 0xFF	; 255
     ee6:	64 2f       	mov	r22, r20
     ee8:	77 27       	eor	r23, r23
     eea:	ae df       	rcall	.-164    	; 0xe48 <__udivmodhi4>
     eec:	80 5d       	subi	r24, 0xD0	; 208
     eee:	8a 33       	cpi	r24, 0x3A	; 58
     ef0:	0c f0       	brlt	.+2      	; 0xef4 <itoa+0x2a>
     ef2:	89 5d       	subi	r24, 0xD9	; 217
     ef4:	81 93       	st	Z+, r24
     ef6:	cb 01       	movw	r24, r22
     ef8:	00 97       	sbiw	r24, 0x00	; 0
     efa:	a9 f7       	brne	.-22     	; 0xee6 <itoa+0x1c>
     efc:	16 f4       	brtc	.+4      	; 0xf02 <itoa+0x38>
     efe:	5d e2       	ldi	r21, 0x2D	; 45
     f00:	51 93       	st	Z+, r21
     f02:	10 82       	st	Z, r1
     f04:	c9 01       	movw	r24, r18
     f06:	2b c2       	rjmp	.+1110   	; 0x135e <strrev>

00000f08 <__mulhi_const_10>:
     f08:	7a e0       	ldi	r23, 0x0A	; 10
     f0a:	97 9f       	mul	r25, r23
     f0c:	90 2d       	mov	r25, r0
     f0e:	87 9f       	mul	r24, r23
     f10:	80 2d       	mov	r24, r0
     f12:	91 0d       	add	r25, r1
     f14:	11 24       	eor	r1, r1
     f16:	08 95       	ret

00000f18 <sprintf>:
     f18:	ae e0       	ldi	r26, 0x0E	; 14
     f1a:	b0 e0       	ldi	r27, 0x00	; 0
     f1c:	e1 e9       	ldi	r30, 0x91	; 145
     f1e:	f7 e0       	ldi	r31, 0x07	; 7
     f20:	c6 c2       	rjmp	.+1420   	; 0x14ae <__prologue_saves__+0x1c>
     f22:	0d 89       	ldd	r16, Y+21	; 0x15
     f24:	1e 89       	ldd	r17, Y+22	; 0x16
     f26:	86 e0       	ldi	r24, 0x06	; 6
     f28:	8c 83       	std	Y+4, r24	; 0x04
     f2a:	1a 83       	std	Y+2, r17	; 0x02
     f2c:	09 83       	std	Y+1, r16	; 0x01
     f2e:	8f ef       	ldi	r24, 0xFF	; 255
     f30:	9f e7       	ldi	r25, 0x7F	; 127
     f32:	9e 83       	std	Y+6, r25	; 0x06
     f34:	8d 83       	std	Y+5, r24	; 0x05
     f36:	9e 01       	movw	r18, r28
     f38:	27 5e       	subi	r18, 0xE7	; 231
     f3a:	3f 4f       	sbci	r19, 0xFF	; 255
     f3c:	ce 01       	movw	r24, r28
     f3e:	01 96       	adiw	r24, 0x01	; 1
     f40:	6f 89       	ldd	r22, Y+23	; 0x17
     f42:	78 8d       	ldd	r23, Y+24	; 0x18
     f44:	a9 01       	movw	r20, r18
     f46:	08 d0       	rcall	.+16     	; 0xf58 <vfprintf>
     f48:	ef 81       	ldd	r30, Y+7	; 0x07
     f4a:	f8 85       	ldd	r31, Y+8	; 0x08
     f4c:	e0 0f       	add	r30, r16
     f4e:	f1 1f       	adc	r31, r17
     f50:	10 82       	st	Z, r1
     f52:	2e 96       	adiw	r28, 0x0e	; 14
     f54:	e4 e0       	ldi	r30, 0x04	; 4
     f56:	c7 c2       	rjmp	.+1422   	; 0x14e6 <__epilogue_restores__+0x1c>

00000f58 <vfprintf>:
     f58:	ac e0       	ldi	r26, 0x0C	; 12
     f5a:	b0 e0       	ldi	r27, 0x00	; 0
     f5c:	e1 eb       	ldi	r30, 0xB1	; 177
     f5e:	f7 e0       	ldi	r31, 0x07	; 7
     f60:	98 c2       	rjmp	.+1328   	; 0x1492 <__prologue_saves__>
     f62:	6c 01       	movw	r12, r24
     f64:	1b 01       	movw	r2, r22
     f66:	8a 01       	movw	r16, r20
     f68:	fc 01       	movw	r30, r24
     f6a:	17 82       	std	Z+7, r1	; 0x07
     f6c:	16 82       	std	Z+6, r1	; 0x06
     f6e:	83 81       	ldd	r24, Z+3	; 0x03
     f70:	81 ff       	sbrs	r24, 1
     f72:	c4 c1       	rjmp	.+904    	; 0x12fc <vfprintf+0x3a4>
     f74:	2e 01       	movw	r4, r28
     f76:	08 94       	sec
     f78:	41 1c       	adc	r4, r1
     f7a:	51 1c       	adc	r5, r1
     f7c:	f6 01       	movw	r30, r12
     f7e:	93 81       	ldd	r25, Z+3	; 0x03
     f80:	f1 01       	movw	r30, r2
     f82:	93 fd       	sbrc	r25, 3
     f84:	85 91       	lpm	r24, Z+
     f86:	93 ff       	sbrs	r25, 3
     f88:	81 91       	ld	r24, Z+
     f8a:	1f 01       	movw	r2, r30
     f8c:	88 23       	and	r24, r24
     f8e:	09 f4       	brne	.+2      	; 0xf92 <vfprintf+0x3a>
     f90:	b1 c1       	rjmp	.+866    	; 0x12f4 <vfprintf+0x39c>
     f92:	85 32       	cpi	r24, 0x25	; 37
     f94:	39 f4       	brne	.+14     	; 0xfa4 <vfprintf+0x4c>
     f96:	93 fd       	sbrc	r25, 3
     f98:	85 91       	lpm	r24, Z+
     f9a:	93 ff       	sbrs	r25, 3
     f9c:	81 91       	ld	r24, Z+
     f9e:	1f 01       	movw	r2, r30
     fa0:	85 32       	cpi	r24, 0x25	; 37
     fa2:	21 f4       	brne	.+8      	; 0xfac <vfprintf+0x54>
     fa4:	90 e0       	ldi	r25, 0x00	; 0
     fa6:	b6 01       	movw	r22, r12
     fa8:	ea d1       	rcall	.+980    	; 0x137e <fputc>
     faa:	e8 cf       	rjmp	.-48     	; 0xf7c <vfprintf+0x24>
     fac:	ee 24       	eor	r14, r14
     fae:	ff 24       	eor	r15, r15
     fb0:	20 e0       	ldi	r18, 0x00	; 0
     fb2:	20 32       	cpi	r18, 0x20	; 32
     fb4:	b0 f4       	brcc	.+44     	; 0xfe2 <vfprintf+0x8a>
     fb6:	8b 32       	cpi	r24, 0x2B	; 43
     fb8:	69 f0       	breq	.+26     	; 0xfd4 <vfprintf+0x7c>
     fba:	8c 32       	cpi	r24, 0x2C	; 44
     fbc:	28 f4       	brcc	.+10     	; 0xfc8 <vfprintf+0x70>
     fbe:	80 32       	cpi	r24, 0x20	; 32
     fc0:	51 f0       	breq	.+20     	; 0xfd6 <vfprintf+0x7e>
     fc2:	83 32       	cpi	r24, 0x23	; 35
     fc4:	71 f4       	brne	.+28     	; 0xfe2 <vfprintf+0x8a>
     fc6:	0b c0       	rjmp	.+22     	; 0xfde <vfprintf+0x86>
     fc8:	8d 32       	cpi	r24, 0x2D	; 45
     fca:	39 f0       	breq	.+14     	; 0xfda <vfprintf+0x82>
     fcc:	80 33       	cpi	r24, 0x30	; 48
     fce:	49 f4       	brne	.+18     	; 0xfe2 <vfprintf+0x8a>
     fd0:	21 60       	ori	r18, 0x01	; 1
     fd2:	2c c0       	rjmp	.+88     	; 0x102c <vfprintf+0xd4>
     fd4:	22 60       	ori	r18, 0x02	; 2
     fd6:	24 60       	ori	r18, 0x04	; 4
     fd8:	29 c0       	rjmp	.+82     	; 0x102c <vfprintf+0xd4>
     fda:	28 60       	ori	r18, 0x08	; 8
     fdc:	27 c0       	rjmp	.+78     	; 0x102c <vfprintf+0xd4>
     fde:	20 61       	ori	r18, 0x10	; 16
     fe0:	25 c0       	rjmp	.+74     	; 0x102c <vfprintf+0xd4>
     fe2:	27 fd       	sbrc	r18, 7
     fe4:	2c c0       	rjmp	.+88     	; 0x103e <vfprintf+0xe6>
     fe6:	38 2f       	mov	r19, r24
     fe8:	30 53       	subi	r19, 0x30	; 48
     fea:	3a 30       	cpi	r19, 0x0A	; 10
     fec:	98 f4       	brcc	.+38     	; 0x1014 <vfprintf+0xbc>
     fee:	26 ff       	sbrs	r18, 6
     ff0:	08 c0       	rjmp	.+16     	; 0x1002 <vfprintf+0xaa>
     ff2:	8e 2d       	mov	r24, r14
     ff4:	88 0f       	add	r24, r24
     ff6:	e8 2e       	mov	r14, r24
     ff8:	ee 0c       	add	r14, r14
     ffa:	ee 0c       	add	r14, r14
     ffc:	e8 0e       	add	r14, r24
     ffe:	e3 0e       	add	r14, r19
    1000:	15 c0       	rjmp	.+42     	; 0x102c <vfprintf+0xd4>
    1002:	8f 2d       	mov	r24, r15
    1004:	88 0f       	add	r24, r24
    1006:	f8 2e       	mov	r15, r24
    1008:	ff 0c       	add	r15, r15
    100a:	ff 0c       	add	r15, r15
    100c:	f8 0e       	add	r15, r24
    100e:	f3 0e       	add	r15, r19
    1010:	20 62       	ori	r18, 0x20	; 32
    1012:	0c c0       	rjmp	.+24     	; 0x102c <vfprintf+0xd4>
    1014:	8e 32       	cpi	r24, 0x2E	; 46
    1016:	21 f4       	brne	.+8      	; 0x1020 <vfprintf+0xc8>
    1018:	26 fd       	sbrc	r18, 6
    101a:	6c c1       	rjmp	.+728    	; 0x12f4 <vfprintf+0x39c>
    101c:	20 64       	ori	r18, 0x40	; 64
    101e:	06 c0       	rjmp	.+12     	; 0x102c <vfprintf+0xd4>
    1020:	8c 36       	cpi	r24, 0x6C	; 108
    1022:	11 f4       	brne	.+4      	; 0x1028 <vfprintf+0xd0>
    1024:	20 68       	ori	r18, 0x80	; 128
    1026:	02 c0       	rjmp	.+4      	; 0x102c <vfprintf+0xd4>
    1028:	88 36       	cpi	r24, 0x68	; 104
    102a:	49 f4       	brne	.+18     	; 0x103e <vfprintf+0xe6>
    102c:	f1 01       	movw	r30, r2
    102e:	93 fd       	sbrc	r25, 3
    1030:	85 91       	lpm	r24, Z+
    1032:	93 ff       	sbrs	r25, 3
    1034:	81 91       	ld	r24, Z+
    1036:	1f 01       	movw	r2, r30
    1038:	88 23       	and	r24, r24
    103a:	09 f0       	breq	.+2      	; 0x103e <vfprintf+0xe6>
    103c:	ba cf       	rjmp	.-140    	; 0xfb2 <vfprintf+0x5a>
    103e:	98 2f       	mov	r25, r24
    1040:	95 54       	subi	r25, 0x45	; 69
    1042:	93 30       	cpi	r25, 0x03	; 3
    1044:	18 f0       	brcs	.+6      	; 0x104c <vfprintf+0xf4>
    1046:	90 52       	subi	r25, 0x20	; 32
    1048:	93 30       	cpi	r25, 0x03	; 3
    104a:	28 f4       	brcc	.+10     	; 0x1056 <vfprintf+0xfe>
    104c:	0c 5f       	subi	r16, 0xFC	; 252
    104e:	1f 4f       	sbci	r17, 0xFF	; 255
    1050:	ff e3       	ldi	r31, 0x3F	; 63
    1052:	f9 83       	std	Y+1, r31	; 0x01
    1054:	0d c0       	rjmp	.+26     	; 0x1070 <vfprintf+0x118>
    1056:	83 36       	cpi	r24, 0x63	; 99
    1058:	31 f0       	breq	.+12     	; 0x1066 <vfprintf+0x10e>
    105a:	83 37       	cpi	r24, 0x73	; 115
    105c:	71 f0       	breq	.+28     	; 0x107a <vfprintf+0x122>
    105e:	83 35       	cpi	r24, 0x53	; 83
    1060:	09 f0       	breq	.+2      	; 0x1064 <vfprintf+0x10c>
    1062:	5c c0       	rjmp	.+184    	; 0x111c <vfprintf+0x1c4>
    1064:	21 c0       	rjmp	.+66     	; 0x10a8 <vfprintf+0x150>
    1066:	f8 01       	movw	r30, r16
    1068:	80 81       	ld	r24, Z
    106a:	89 83       	std	Y+1, r24	; 0x01
    106c:	0e 5f       	subi	r16, 0xFE	; 254
    106e:	1f 4f       	sbci	r17, 0xFF	; 255
    1070:	42 01       	movw	r8, r4
    1072:	71 e0       	ldi	r23, 0x01	; 1
    1074:	a7 2e       	mov	r10, r23
    1076:	b1 2c       	mov	r11, r1
    1078:	15 c0       	rjmp	.+42     	; 0x10a4 <vfprintf+0x14c>
    107a:	62 e0       	ldi	r22, 0x02	; 2
    107c:	66 2e       	mov	r6, r22
    107e:	71 2c       	mov	r7, r1
    1080:	60 0e       	add	r6, r16
    1082:	71 1e       	adc	r7, r17
    1084:	f8 01       	movw	r30, r16
    1086:	80 80       	ld	r8, Z
    1088:	91 80       	ldd	r9, Z+1	; 0x01
    108a:	26 ff       	sbrs	r18, 6
    108c:	03 c0       	rjmp	.+6      	; 0x1094 <vfprintf+0x13c>
    108e:	6e 2d       	mov	r22, r14
    1090:	70 e0       	ldi	r23, 0x00	; 0
    1092:	02 c0       	rjmp	.+4      	; 0x1098 <vfprintf+0x140>
    1094:	6f ef       	ldi	r22, 0xFF	; 255
    1096:	7f ef       	ldi	r23, 0xFF	; 255
    1098:	c4 01       	movw	r24, r8
    109a:	2c 87       	std	Y+12, r18	; 0x0c
    109c:	55 d1       	rcall	.+682    	; 0x1348 <strnlen>
    109e:	5c 01       	movw	r10, r24
    10a0:	83 01       	movw	r16, r6
    10a2:	2c 85       	ldd	r18, Y+12	; 0x0c
    10a4:	2f 77       	andi	r18, 0x7F	; 127
    10a6:	16 c0       	rjmp	.+44     	; 0x10d4 <vfprintf+0x17c>
    10a8:	52 e0       	ldi	r21, 0x02	; 2
    10aa:	65 2e       	mov	r6, r21
    10ac:	71 2c       	mov	r7, r1
    10ae:	60 0e       	add	r6, r16
    10b0:	71 1e       	adc	r7, r17
    10b2:	f8 01       	movw	r30, r16
    10b4:	80 80       	ld	r8, Z
    10b6:	91 80       	ldd	r9, Z+1	; 0x01
    10b8:	26 ff       	sbrs	r18, 6
    10ba:	03 c0       	rjmp	.+6      	; 0x10c2 <vfprintf+0x16a>
    10bc:	6e 2d       	mov	r22, r14
    10be:	70 e0       	ldi	r23, 0x00	; 0
    10c0:	02 c0       	rjmp	.+4      	; 0x10c6 <vfprintf+0x16e>
    10c2:	6f ef       	ldi	r22, 0xFF	; 255
    10c4:	7f ef       	ldi	r23, 0xFF	; 255
    10c6:	c4 01       	movw	r24, r8
    10c8:	2c 87       	std	Y+12, r18	; 0x0c
    10ca:	33 d1       	rcall	.+614    	; 0x1332 <strnlen_P>
    10cc:	5c 01       	movw	r10, r24
    10ce:	2c 85       	ldd	r18, Y+12	; 0x0c
    10d0:	20 68       	ori	r18, 0x80	; 128
    10d2:	83 01       	movw	r16, r6
    10d4:	23 fd       	sbrc	r18, 3
    10d6:	1e c0       	rjmp	.+60     	; 0x1114 <vfprintf+0x1bc>
    10d8:	07 c0       	rjmp	.+14     	; 0x10e8 <vfprintf+0x190>
    10da:	80 e2       	ldi	r24, 0x20	; 32
    10dc:	90 e0       	ldi	r25, 0x00	; 0
    10de:	b6 01       	movw	r22, r12
    10e0:	2c 87       	std	Y+12, r18	; 0x0c
    10e2:	4d d1       	rcall	.+666    	; 0x137e <fputc>
    10e4:	fa 94       	dec	r15
    10e6:	2c 85       	ldd	r18, Y+12	; 0x0c
    10e8:	8f 2d       	mov	r24, r15
    10ea:	90 e0       	ldi	r25, 0x00	; 0
    10ec:	a8 16       	cp	r10, r24
    10ee:	b9 06       	cpc	r11, r25
    10f0:	a0 f3       	brcs	.-24     	; 0x10da <vfprintf+0x182>
    10f2:	10 c0       	rjmp	.+32     	; 0x1114 <vfprintf+0x1bc>
    10f4:	f4 01       	movw	r30, r8
    10f6:	27 fd       	sbrc	r18, 7
    10f8:	85 91       	lpm	r24, Z+
    10fa:	27 ff       	sbrs	r18, 7
    10fc:	81 91       	ld	r24, Z+
    10fe:	4f 01       	movw	r8, r30
    1100:	90 e0       	ldi	r25, 0x00	; 0
    1102:	b6 01       	movw	r22, r12
    1104:	2c 87       	std	Y+12, r18	; 0x0c
    1106:	3b d1       	rcall	.+630    	; 0x137e <fputc>
    1108:	2c 85       	ldd	r18, Y+12	; 0x0c
    110a:	f1 10       	cpse	r15, r1
    110c:	fa 94       	dec	r15
    110e:	08 94       	sec
    1110:	a1 08       	sbc	r10, r1
    1112:	b1 08       	sbc	r11, r1
    1114:	a1 14       	cp	r10, r1
    1116:	b1 04       	cpc	r11, r1
    1118:	69 f7       	brne	.-38     	; 0x10f4 <vfprintf+0x19c>
    111a:	e9 c0       	rjmp	.+466    	; 0x12ee <vfprintf+0x396>
    111c:	84 36       	cpi	r24, 0x64	; 100
    111e:	11 f0       	breq	.+4      	; 0x1124 <vfprintf+0x1cc>
    1120:	89 36       	cpi	r24, 0x69	; 105
    1122:	41 f5       	brne	.+80     	; 0x1174 <vfprintf+0x21c>
    1124:	27 ff       	sbrs	r18, 7
    1126:	08 c0       	rjmp	.+16     	; 0x1138 <vfprintf+0x1e0>
    1128:	f8 01       	movw	r30, r16
    112a:	60 81       	ld	r22, Z
    112c:	71 81       	ldd	r23, Z+1	; 0x01
    112e:	82 81       	ldd	r24, Z+2	; 0x02
    1130:	93 81       	ldd	r25, Z+3	; 0x03
    1132:	0c 5f       	subi	r16, 0xFC	; 252
    1134:	1f 4f       	sbci	r17, 0xFF	; 255
    1136:	09 c0       	rjmp	.+18     	; 0x114a <vfprintf+0x1f2>
    1138:	f8 01       	movw	r30, r16
    113a:	60 81       	ld	r22, Z
    113c:	71 81       	ldd	r23, Z+1	; 0x01
    113e:	88 27       	eor	r24, r24
    1140:	77 fd       	sbrc	r23, 7
    1142:	80 95       	com	r24
    1144:	98 2f       	mov	r25, r24
    1146:	0e 5f       	subi	r16, 0xFE	; 254
    1148:	1f 4f       	sbci	r17, 0xFF	; 255
    114a:	4f e6       	ldi	r20, 0x6F	; 111
    114c:	b4 2e       	mov	r11, r20
    114e:	b2 22       	and	r11, r18
    1150:	97 ff       	sbrs	r25, 7
    1152:	09 c0       	rjmp	.+18     	; 0x1166 <vfprintf+0x20e>
    1154:	90 95       	com	r25
    1156:	80 95       	com	r24
    1158:	70 95       	com	r23
    115a:	61 95       	neg	r22
    115c:	7f 4f       	sbci	r23, 0xFF	; 255
    115e:	8f 4f       	sbci	r24, 0xFF	; 255
    1160:	9f 4f       	sbci	r25, 0xFF	; 255
    1162:	f0 e8       	ldi	r31, 0x80	; 128
    1164:	bf 2a       	or	r11, r31
    1166:	a2 01       	movw	r20, r4
    1168:	2a e0       	ldi	r18, 0x0A	; 10
    116a:	30 e0       	ldi	r19, 0x00	; 0
    116c:	34 d1       	rcall	.+616    	; 0x13d6 <__ultoa_invert>
    116e:	78 2e       	mov	r7, r24
    1170:	74 18       	sub	r7, r4
    1172:	44 c0       	rjmp	.+136    	; 0x11fc <vfprintf+0x2a4>
    1174:	85 37       	cpi	r24, 0x75	; 117
    1176:	31 f4       	brne	.+12     	; 0x1184 <vfprintf+0x22c>
    1178:	3f ee       	ldi	r19, 0xEF	; 239
    117a:	b3 2e       	mov	r11, r19
    117c:	b2 22       	and	r11, r18
    117e:	2a e0       	ldi	r18, 0x0A	; 10
    1180:	30 e0       	ldi	r19, 0x00	; 0
    1182:	25 c0       	rjmp	.+74     	; 0x11ce <vfprintf+0x276>
    1184:	99 ef       	ldi	r25, 0xF9	; 249
    1186:	b9 2e       	mov	r11, r25
    1188:	b2 22       	and	r11, r18
    118a:	8f 36       	cpi	r24, 0x6F	; 111
    118c:	c1 f0       	breq	.+48     	; 0x11be <vfprintf+0x266>
    118e:	80 37       	cpi	r24, 0x70	; 112
    1190:	20 f4       	brcc	.+8      	; 0x119a <vfprintf+0x242>
    1192:	88 35       	cpi	r24, 0x58	; 88
    1194:	09 f0       	breq	.+2      	; 0x1198 <vfprintf+0x240>
    1196:	ae c0       	rjmp	.+348    	; 0x12f4 <vfprintf+0x39c>
    1198:	0d c0       	rjmp	.+26     	; 0x11b4 <vfprintf+0x25c>
    119a:	80 37       	cpi	r24, 0x70	; 112
    119c:	21 f0       	breq	.+8      	; 0x11a6 <vfprintf+0x24e>
    119e:	88 37       	cpi	r24, 0x78	; 120
    11a0:	09 f0       	breq	.+2      	; 0x11a4 <vfprintf+0x24c>
    11a2:	a8 c0       	rjmp	.+336    	; 0x12f4 <vfprintf+0x39c>
    11a4:	02 c0       	rjmp	.+4      	; 0x11aa <vfprintf+0x252>
    11a6:	20 e1       	ldi	r18, 0x10	; 16
    11a8:	b2 2a       	or	r11, r18
    11aa:	b4 fe       	sbrs	r11, 4
    11ac:	0b c0       	rjmp	.+22     	; 0x11c4 <vfprintf+0x26c>
    11ae:	84 e0       	ldi	r24, 0x04	; 4
    11b0:	b8 2a       	or	r11, r24
    11b2:	08 c0       	rjmp	.+16     	; 0x11c4 <vfprintf+0x26c>
    11b4:	b4 fe       	sbrs	r11, 4
    11b6:	09 c0       	rjmp	.+18     	; 0x11ca <vfprintf+0x272>
    11b8:	e6 e0       	ldi	r30, 0x06	; 6
    11ba:	be 2a       	or	r11, r30
    11bc:	06 c0       	rjmp	.+12     	; 0x11ca <vfprintf+0x272>
    11be:	28 e0       	ldi	r18, 0x08	; 8
    11c0:	30 e0       	ldi	r19, 0x00	; 0
    11c2:	05 c0       	rjmp	.+10     	; 0x11ce <vfprintf+0x276>
    11c4:	20 e1       	ldi	r18, 0x10	; 16
    11c6:	30 e0       	ldi	r19, 0x00	; 0
    11c8:	02 c0       	rjmp	.+4      	; 0x11ce <vfprintf+0x276>
    11ca:	20 e1       	ldi	r18, 0x10	; 16
    11cc:	32 e0       	ldi	r19, 0x02	; 2
    11ce:	b7 fe       	sbrs	r11, 7
    11d0:	08 c0       	rjmp	.+16     	; 0x11e2 <vfprintf+0x28a>
    11d2:	f8 01       	movw	r30, r16
    11d4:	60 81       	ld	r22, Z
    11d6:	71 81       	ldd	r23, Z+1	; 0x01
    11d8:	82 81       	ldd	r24, Z+2	; 0x02
    11da:	93 81       	ldd	r25, Z+3	; 0x03
    11dc:	0c 5f       	subi	r16, 0xFC	; 252
    11de:	1f 4f       	sbci	r17, 0xFF	; 255
    11e0:	07 c0       	rjmp	.+14     	; 0x11f0 <vfprintf+0x298>
    11e2:	f8 01       	movw	r30, r16
    11e4:	60 81       	ld	r22, Z
    11e6:	71 81       	ldd	r23, Z+1	; 0x01
    11e8:	80 e0       	ldi	r24, 0x00	; 0
    11ea:	90 e0       	ldi	r25, 0x00	; 0
    11ec:	0e 5f       	subi	r16, 0xFE	; 254
    11ee:	1f 4f       	sbci	r17, 0xFF	; 255
    11f0:	a2 01       	movw	r20, r4
    11f2:	f1 d0       	rcall	.+482    	; 0x13d6 <__ultoa_invert>
    11f4:	78 2e       	mov	r7, r24
    11f6:	74 18       	sub	r7, r4
    11f8:	ff e7       	ldi	r31, 0x7F	; 127
    11fa:	bf 22       	and	r11, r31
    11fc:	b6 fe       	sbrs	r11, 6
    11fe:	0b c0       	rjmp	.+22     	; 0x1216 <vfprintf+0x2be>
    1200:	2e ef       	ldi	r18, 0xFE	; 254
    1202:	b2 22       	and	r11, r18
    1204:	7e 14       	cp	r7, r14
    1206:	38 f4       	brcc	.+14     	; 0x1216 <vfprintf+0x2be>
    1208:	b4 fe       	sbrs	r11, 4
    120a:	07 c0       	rjmp	.+14     	; 0x121a <vfprintf+0x2c2>
    120c:	b2 fc       	sbrc	r11, 2
    120e:	05 c0       	rjmp	.+10     	; 0x121a <vfprintf+0x2c2>
    1210:	8f ee       	ldi	r24, 0xEF	; 239
    1212:	b8 22       	and	r11, r24
    1214:	02 c0       	rjmp	.+4      	; 0x121a <vfprintf+0x2c2>
    1216:	a7 2c       	mov	r10, r7
    1218:	01 c0       	rjmp	.+2      	; 0x121c <vfprintf+0x2c4>
    121a:	ae 2c       	mov	r10, r14
    121c:	8b 2d       	mov	r24, r11
    121e:	90 e0       	ldi	r25, 0x00	; 0
    1220:	b4 fe       	sbrs	r11, 4
    1222:	0d c0       	rjmp	.+26     	; 0x123e <vfprintf+0x2e6>
    1224:	fe 01       	movw	r30, r28
    1226:	e7 0d       	add	r30, r7
    1228:	f1 1d       	adc	r31, r1
    122a:	20 81       	ld	r18, Z
    122c:	20 33       	cpi	r18, 0x30	; 48
    122e:	19 f4       	brne	.+6      	; 0x1236 <vfprintf+0x2de>
    1230:	e9 ee       	ldi	r30, 0xE9	; 233
    1232:	be 22       	and	r11, r30
    1234:	09 c0       	rjmp	.+18     	; 0x1248 <vfprintf+0x2f0>
    1236:	a3 94       	inc	r10
    1238:	b2 fe       	sbrs	r11, 2
    123a:	06 c0       	rjmp	.+12     	; 0x1248 <vfprintf+0x2f0>
    123c:	04 c0       	rjmp	.+8      	; 0x1246 <vfprintf+0x2ee>
    123e:	86 78       	andi	r24, 0x86	; 134
    1240:	90 70       	andi	r25, 0x00	; 0
    1242:	00 97       	sbiw	r24, 0x00	; 0
    1244:	09 f0       	breq	.+2      	; 0x1248 <vfprintf+0x2f0>
    1246:	a3 94       	inc	r10
    1248:	8b 2c       	mov	r8, r11
    124a:	99 24       	eor	r9, r9
    124c:	b3 fc       	sbrc	r11, 3
    124e:	13 c0       	rjmp	.+38     	; 0x1276 <vfprintf+0x31e>
    1250:	b0 fe       	sbrs	r11, 0
    1252:	0e c0       	rjmp	.+28     	; 0x1270 <vfprintf+0x318>
    1254:	af 14       	cp	r10, r15
    1256:	28 f4       	brcc	.+10     	; 0x1262 <vfprintf+0x30a>
    1258:	e7 2c       	mov	r14, r7
    125a:	ef 0c       	add	r14, r15
    125c:	ea 18       	sub	r14, r10
    125e:	af 2c       	mov	r10, r15
    1260:	07 c0       	rjmp	.+14     	; 0x1270 <vfprintf+0x318>
    1262:	e7 2c       	mov	r14, r7
    1264:	05 c0       	rjmp	.+10     	; 0x1270 <vfprintf+0x318>
    1266:	80 e2       	ldi	r24, 0x20	; 32
    1268:	90 e0       	ldi	r25, 0x00	; 0
    126a:	b6 01       	movw	r22, r12
    126c:	88 d0       	rcall	.+272    	; 0x137e <fputc>
    126e:	a3 94       	inc	r10
    1270:	af 14       	cp	r10, r15
    1272:	c8 f3       	brcs	.-14     	; 0x1266 <vfprintf+0x30e>
    1274:	04 c0       	rjmp	.+8      	; 0x127e <vfprintf+0x326>
    1276:	af 14       	cp	r10, r15
    1278:	10 f4       	brcc	.+4      	; 0x127e <vfprintf+0x326>
    127a:	fa 18       	sub	r15, r10
    127c:	01 c0       	rjmp	.+2      	; 0x1280 <vfprintf+0x328>
    127e:	ff 24       	eor	r15, r15
    1280:	84 fe       	sbrs	r8, 4
    1282:	0e c0       	rjmp	.+28     	; 0x12a0 <vfprintf+0x348>
    1284:	80 e3       	ldi	r24, 0x30	; 48
    1286:	90 e0       	ldi	r25, 0x00	; 0
    1288:	b6 01       	movw	r22, r12
    128a:	79 d0       	rcall	.+242    	; 0x137e <fputc>
    128c:	82 fe       	sbrs	r8, 2
    128e:	1d c0       	rjmp	.+58     	; 0x12ca <vfprintf+0x372>
    1290:	81 fe       	sbrs	r8, 1
    1292:	03 c0       	rjmp	.+6      	; 0x129a <vfprintf+0x342>
    1294:	88 e5       	ldi	r24, 0x58	; 88
    1296:	90 e0       	ldi	r25, 0x00	; 0
    1298:	10 c0       	rjmp	.+32     	; 0x12ba <vfprintf+0x362>
    129a:	88 e7       	ldi	r24, 0x78	; 120
    129c:	90 e0       	ldi	r25, 0x00	; 0
    129e:	0d c0       	rjmp	.+26     	; 0x12ba <vfprintf+0x362>
    12a0:	c4 01       	movw	r24, r8
    12a2:	86 78       	andi	r24, 0x86	; 134
    12a4:	90 70       	andi	r25, 0x00	; 0
    12a6:	00 97       	sbiw	r24, 0x00	; 0
    12a8:	81 f0       	breq	.+32     	; 0x12ca <vfprintf+0x372>
    12aa:	81 fc       	sbrc	r8, 1
    12ac:	02 c0       	rjmp	.+4      	; 0x12b2 <vfprintf+0x35a>
    12ae:	80 e2       	ldi	r24, 0x20	; 32
    12b0:	01 c0       	rjmp	.+2      	; 0x12b4 <vfprintf+0x35c>
    12b2:	8b e2       	ldi	r24, 0x2B	; 43
    12b4:	b7 fc       	sbrc	r11, 7
    12b6:	8d e2       	ldi	r24, 0x2D	; 45
    12b8:	90 e0       	ldi	r25, 0x00	; 0
    12ba:	b6 01       	movw	r22, r12
    12bc:	60 d0       	rcall	.+192    	; 0x137e <fputc>
    12be:	05 c0       	rjmp	.+10     	; 0x12ca <vfprintf+0x372>
    12c0:	80 e3       	ldi	r24, 0x30	; 48
    12c2:	90 e0       	ldi	r25, 0x00	; 0
    12c4:	b6 01       	movw	r22, r12
    12c6:	5b d0       	rcall	.+182    	; 0x137e <fputc>
    12c8:	ea 94       	dec	r14
    12ca:	7e 14       	cp	r7, r14
    12cc:	c8 f3       	brcs	.-14     	; 0x12c0 <vfprintf+0x368>
    12ce:	7a 94       	dec	r7
    12d0:	f2 01       	movw	r30, r4
    12d2:	e7 0d       	add	r30, r7
    12d4:	f1 1d       	adc	r31, r1
    12d6:	80 81       	ld	r24, Z
    12d8:	90 e0       	ldi	r25, 0x00	; 0
    12da:	b6 01       	movw	r22, r12
    12dc:	50 d0       	rcall	.+160    	; 0x137e <fputc>
    12de:	77 20       	and	r7, r7
    12e0:	b1 f7       	brne	.-20     	; 0x12ce <vfprintf+0x376>
    12e2:	05 c0       	rjmp	.+10     	; 0x12ee <vfprintf+0x396>
    12e4:	80 e2       	ldi	r24, 0x20	; 32
    12e6:	90 e0       	ldi	r25, 0x00	; 0
    12e8:	b6 01       	movw	r22, r12
    12ea:	49 d0       	rcall	.+146    	; 0x137e <fputc>
    12ec:	fa 94       	dec	r15
    12ee:	ff 20       	and	r15, r15
    12f0:	c9 f7       	brne	.-14     	; 0x12e4 <vfprintf+0x38c>
    12f2:	44 ce       	rjmp	.-888    	; 0xf7c <vfprintf+0x24>
    12f4:	f6 01       	movw	r30, r12
    12f6:	26 81       	ldd	r18, Z+6	; 0x06
    12f8:	37 81       	ldd	r19, Z+7	; 0x07
    12fa:	02 c0       	rjmp	.+4      	; 0x1300 <vfprintf+0x3a8>
    12fc:	2f ef       	ldi	r18, 0xFF	; 255
    12fe:	3f ef       	ldi	r19, 0xFF	; 255
    1300:	c9 01       	movw	r24, r18
    1302:	2c 96       	adiw	r28, 0x0c	; 12
    1304:	e2 e1       	ldi	r30, 0x12	; 18
    1306:	e1 c0       	rjmp	.+450    	; 0x14ca <__epilogue_restores__>

00001308 <__eerd_byte_m8>:
    1308:	e1 99       	sbic	0x1c, 1	; 28
    130a:	fe cf       	rjmp	.-4      	; 0x1308 <__eerd_byte_m8>
    130c:	9f bb       	out	0x1f, r25	; 31
    130e:	8e bb       	out	0x1e, r24	; 30
    1310:	e0 9a       	sbi	0x1c, 0	; 28
    1312:	99 27       	eor	r25, r25
    1314:	8d b3       	in	r24, 0x1d	; 29
    1316:	08 95       	ret

00001318 <__eewr_byte_m8>:
    1318:	26 2f       	mov	r18, r22

0000131a <__eewr_r18_m8>:
    131a:	e1 99       	sbic	0x1c, 1	; 28
    131c:	fe cf       	rjmp	.-4      	; 0x131a <__eewr_r18_m8>
    131e:	9f bb       	out	0x1f, r25	; 31
    1320:	8e bb       	out	0x1e, r24	; 30
    1322:	2d bb       	out	0x1d, r18	; 29
    1324:	0f b6       	in	r0, 0x3f	; 63
    1326:	f8 94       	cli
    1328:	e2 9a       	sbi	0x1c, 2	; 28
    132a:	e1 9a       	sbi	0x1c, 1	; 28
    132c:	0f be       	out	0x3f, r0	; 63
    132e:	01 96       	adiw	r24, 0x01	; 1
    1330:	08 95       	ret

00001332 <strnlen_P>:
    1332:	fc 01       	movw	r30, r24
    1334:	05 90       	lpm	r0, Z+
    1336:	61 50       	subi	r22, 0x01	; 1
    1338:	70 40       	sbci	r23, 0x00	; 0
    133a:	01 10       	cpse	r0, r1
    133c:	d8 f7       	brcc	.-10     	; 0x1334 <strnlen_P+0x2>
    133e:	80 95       	com	r24
    1340:	90 95       	com	r25
    1342:	8e 0f       	add	r24, r30
    1344:	9f 1f       	adc	r25, r31
    1346:	08 95       	ret

00001348 <strnlen>:
    1348:	fc 01       	movw	r30, r24
    134a:	61 50       	subi	r22, 0x01	; 1
    134c:	70 40       	sbci	r23, 0x00	; 0
    134e:	01 90       	ld	r0, Z+
    1350:	01 10       	cpse	r0, r1
    1352:	d8 f7       	brcc	.-10     	; 0x134a <strnlen+0x2>
    1354:	80 95       	com	r24
    1356:	90 95       	com	r25
    1358:	8e 0f       	add	r24, r30
    135a:	9f 1f       	adc	r25, r31
    135c:	08 95       	ret

0000135e <strrev>:
    135e:	dc 01       	movw	r26, r24
    1360:	fc 01       	movw	r30, r24
    1362:	67 2f       	mov	r22, r23
    1364:	71 91       	ld	r23, Z+
    1366:	77 23       	and	r23, r23
    1368:	e1 f7       	brne	.-8      	; 0x1362 <strrev+0x4>
    136a:	32 97       	sbiw	r30, 0x02	; 2
    136c:	04 c0       	rjmp	.+8      	; 0x1376 <strrev+0x18>
    136e:	7c 91       	ld	r23, X
    1370:	6d 93       	st	X+, r22
    1372:	70 83       	st	Z, r23
    1374:	62 91       	ld	r22, -Z
    1376:	ae 17       	cp	r26, r30
    1378:	bf 07       	cpc	r27, r31
    137a:	c8 f3       	brcs	.-14     	; 0x136e <strrev+0x10>
    137c:	08 95       	ret

0000137e <fputc>:
    137e:	0f 93       	push	r16
    1380:	1f 93       	push	r17
    1382:	cf 93       	push	r28
    1384:	df 93       	push	r29
    1386:	8c 01       	movw	r16, r24
    1388:	eb 01       	movw	r28, r22
    138a:	8b 81       	ldd	r24, Y+3	; 0x03
    138c:	81 ff       	sbrs	r24, 1
    138e:	1b c0       	rjmp	.+54     	; 0x13c6 <fputc+0x48>
    1390:	82 ff       	sbrs	r24, 2
    1392:	0d c0       	rjmp	.+26     	; 0x13ae <fputc+0x30>
    1394:	2e 81       	ldd	r18, Y+6	; 0x06
    1396:	3f 81       	ldd	r19, Y+7	; 0x07
    1398:	8c 81       	ldd	r24, Y+4	; 0x04
    139a:	9d 81       	ldd	r25, Y+5	; 0x05
    139c:	28 17       	cp	r18, r24
    139e:	39 07       	cpc	r19, r25
    13a0:	64 f4       	brge	.+24     	; 0x13ba <fputc+0x3c>
    13a2:	e8 81       	ld	r30, Y
    13a4:	f9 81       	ldd	r31, Y+1	; 0x01
    13a6:	01 93       	st	Z+, r16
    13a8:	f9 83       	std	Y+1, r31	; 0x01
    13aa:	e8 83       	st	Y, r30
    13ac:	06 c0       	rjmp	.+12     	; 0x13ba <fputc+0x3c>
    13ae:	e8 85       	ldd	r30, Y+8	; 0x08
    13b0:	f9 85       	ldd	r31, Y+9	; 0x09
    13b2:	80 2f       	mov	r24, r16
    13b4:	09 95       	icall
    13b6:	00 97       	sbiw	r24, 0x00	; 0
    13b8:	31 f4       	brne	.+12     	; 0x13c6 <fputc+0x48>
    13ba:	8e 81       	ldd	r24, Y+6	; 0x06
    13bc:	9f 81       	ldd	r25, Y+7	; 0x07
    13be:	01 96       	adiw	r24, 0x01	; 1
    13c0:	9f 83       	std	Y+7, r25	; 0x07
    13c2:	8e 83       	std	Y+6, r24	; 0x06
    13c4:	02 c0       	rjmp	.+4      	; 0x13ca <fputc+0x4c>
    13c6:	0f ef       	ldi	r16, 0xFF	; 255
    13c8:	1f ef       	ldi	r17, 0xFF	; 255
    13ca:	c8 01       	movw	r24, r16
    13cc:	df 91       	pop	r29
    13ce:	cf 91       	pop	r28
    13d0:	1f 91       	pop	r17
    13d2:	0f 91       	pop	r16
    13d4:	08 95       	ret

000013d6 <__ultoa_invert>:
    13d6:	fa 01       	movw	r30, r20
    13d8:	aa 27       	eor	r26, r26
    13da:	28 30       	cpi	r18, 0x08	; 8
    13dc:	51 f1       	breq	.+84     	; 0x1432 <__ultoa_invert+0x5c>
    13de:	20 31       	cpi	r18, 0x10	; 16
    13e0:	81 f1       	breq	.+96     	; 0x1442 <__ultoa_invert+0x6c>
    13e2:	e8 94       	clt
    13e4:	6f 93       	push	r22
    13e6:	6e 7f       	andi	r22, 0xFE	; 254
    13e8:	6e 5f       	subi	r22, 0xFE	; 254
    13ea:	7f 4f       	sbci	r23, 0xFF	; 255
    13ec:	8f 4f       	sbci	r24, 0xFF	; 255
    13ee:	9f 4f       	sbci	r25, 0xFF	; 255
    13f0:	af 4f       	sbci	r26, 0xFF	; 255
    13f2:	b1 e0       	ldi	r27, 0x01	; 1
    13f4:	3e d0       	rcall	.+124    	; 0x1472 <__ultoa_invert+0x9c>
    13f6:	b4 e0       	ldi	r27, 0x04	; 4
    13f8:	3c d0       	rcall	.+120    	; 0x1472 <__ultoa_invert+0x9c>
    13fa:	67 0f       	add	r22, r23
    13fc:	78 1f       	adc	r23, r24
    13fe:	89 1f       	adc	r24, r25
    1400:	9a 1f       	adc	r25, r26
    1402:	a1 1d       	adc	r26, r1
    1404:	68 0f       	add	r22, r24
    1406:	79 1f       	adc	r23, r25
    1408:	8a 1f       	adc	r24, r26
    140a:	91 1d       	adc	r25, r1
    140c:	a1 1d       	adc	r26, r1
    140e:	6a 0f       	add	r22, r26
    1410:	71 1d       	adc	r23, r1
    1412:	81 1d       	adc	r24, r1
    1414:	91 1d       	adc	r25, r1
    1416:	a1 1d       	adc	r26, r1
    1418:	20 d0       	rcall	.+64     	; 0x145a <__ultoa_invert+0x84>
    141a:	09 f4       	brne	.+2      	; 0x141e <__ultoa_invert+0x48>
    141c:	68 94       	set
    141e:	3f 91       	pop	r19
    1420:	2a e0       	ldi	r18, 0x0A	; 10
    1422:	26 9f       	mul	r18, r22
    1424:	11 24       	eor	r1, r1
    1426:	30 19       	sub	r19, r0
    1428:	30 5d       	subi	r19, 0xD0	; 208
    142a:	31 93       	st	Z+, r19
    142c:	de f6       	brtc	.-74     	; 0x13e4 <__ultoa_invert+0xe>
    142e:	cf 01       	movw	r24, r30
    1430:	08 95       	ret
    1432:	46 2f       	mov	r20, r22
    1434:	47 70       	andi	r20, 0x07	; 7
    1436:	40 5d       	subi	r20, 0xD0	; 208
    1438:	41 93       	st	Z+, r20
    143a:	b3 e0       	ldi	r27, 0x03	; 3
    143c:	0f d0       	rcall	.+30     	; 0x145c <__ultoa_invert+0x86>
    143e:	c9 f7       	brne	.-14     	; 0x1432 <__ultoa_invert+0x5c>
    1440:	f6 cf       	rjmp	.-20     	; 0x142e <__ultoa_invert+0x58>
    1442:	46 2f       	mov	r20, r22
    1444:	4f 70       	andi	r20, 0x0F	; 15
    1446:	40 5d       	subi	r20, 0xD0	; 208
    1448:	4a 33       	cpi	r20, 0x3A	; 58
    144a:	18 f0       	brcs	.+6      	; 0x1452 <__ultoa_invert+0x7c>
    144c:	49 5d       	subi	r20, 0xD9	; 217
    144e:	31 fd       	sbrc	r19, 1
    1450:	40 52       	subi	r20, 0x20	; 32
    1452:	41 93       	st	Z+, r20
    1454:	02 d0       	rcall	.+4      	; 0x145a <__ultoa_invert+0x84>
    1456:	a9 f7       	brne	.-22     	; 0x1442 <__ultoa_invert+0x6c>
    1458:	ea cf       	rjmp	.-44     	; 0x142e <__ultoa_invert+0x58>
    145a:	b4 e0       	ldi	r27, 0x04	; 4
    145c:	a6 95       	lsr	r26
    145e:	97 95       	ror	r25
    1460:	87 95       	ror	r24
    1462:	77 95       	ror	r23
    1464:	67 95       	ror	r22
    1466:	ba 95       	dec	r27
    1468:	c9 f7       	brne	.-14     	; 0x145c <__ultoa_invert+0x86>
    146a:	00 97       	sbiw	r24, 0x00	; 0
    146c:	61 05       	cpc	r22, r1
    146e:	71 05       	cpc	r23, r1
    1470:	08 95       	ret
    1472:	9b 01       	movw	r18, r22
    1474:	ac 01       	movw	r20, r24
    1476:	0a 2e       	mov	r0, r26
    1478:	06 94       	lsr	r0
    147a:	57 95       	ror	r21
    147c:	47 95       	ror	r20
    147e:	37 95       	ror	r19
    1480:	27 95       	ror	r18
    1482:	ba 95       	dec	r27
    1484:	c9 f7       	brne	.-14     	; 0x1478 <__ultoa_invert+0xa2>
    1486:	62 0f       	add	r22, r18
    1488:	73 1f       	adc	r23, r19
    148a:	84 1f       	adc	r24, r20
    148c:	95 1f       	adc	r25, r21
    148e:	a0 1d       	adc	r26, r0
    1490:	08 95       	ret

00001492 <__prologue_saves__>:
    1492:	2f 92       	push	r2
    1494:	3f 92       	push	r3
    1496:	4f 92       	push	r4
    1498:	5f 92       	push	r5
    149a:	6f 92       	push	r6
    149c:	7f 92       	push	r7
    149e:	8f 92       	push	r8
    14a0:	9f 92       	push	r9
    14a2:	af 92       	push	r10
    14a4:	bf 92       	push	r11
    14a6:	cf 92       	push	r12
    14a8:	df 92       	push	r13
    14aa:	ef 92       	push	r14
    14ac:	ff 92       	push	r15
    14ae:	0f 93       	push	r16
    14b0:	1f 93       	push	r17
    14b2:	cf 93       	push	r28
    14b4:	df 93       	push	r29
    14b6:	cd b7       	in	r28, 0x3d	; 61
    14b8:	de b7       	in	r29, 0x3e	; 62
    14ba:	ca 1b       	sub	r28, r26
    14bc:	db 0b       	sbc	r29, r27
    14be:	0f b6       	in	r0, 0x3f	; 63
    14c0:	f8 94       	cli
    14c2:	de bf       	out	0x3e, r29	; 62
    14c4:	0f be       	out	0x3f, r0	; 63
    14c6:	cd bf       	out	0x3d, r28	; 61
    14c8:	09 94       	ijmp

000014ca <__epilogue_restores__>:
    14ca:	2a 88       	ldd	r2, Y+18	; 0x12
    14cc:	39 88       	ldd	r3, Y+17	; 0x11
    14ce:	48 88       	ldd	r4, Y+16	; 0x10
    14d0:	5f 84       	ldd	r5, Y+15	; 0x0f
    14d2:	6e 84       	ldd	r6, Y+14	; 0x0e
    14d4:	7d 84       	ldd	r7, Y+13	; 0x0d
    14d6:	8c 84       	ldd	r8, Y+12	; 0x0c
    14d8:	9b 84       	ldd	r9, Y+11	; 0x0b
    14da:	aa 84       	ldd	r10, Y+10	; 0x0a
    14dc:	b9 84       	ldd	r11, Y+9	; 0x09
    14de:	c8 84       	ldd	r12, Y+8	; 0x08
    14e0:	df 80       	ldd	r13, Y+7	; 0x07
    14e2:	ee 80       	ldd	r14, Y+6	; 0x06
    14e4:	fd 80       	ldd	r15, Y+5	; 0x05
    14e6:	0c 81       	ldd	r16, Y+4	; 0x04
    14e8:	1b 81       	ldd	r17, Y+3	; 0x03
    14ea:	aa 81       	ldd	r26, Y+2	; 0x02
    14ec:	b9 81       	ldd	r27, Y+1	; 0x01
    14ee:	ce 0f       	add	r28, r30
    14f0:	d1 1d       	adc	r29, r1
    14f2:	0f b6       	in	r0, 0x3f	; 63
    14f4:	f8 94       	cli
    14f6:	de bf       	out	0x3e, r29	; 62
    14f8:	0f be       	out	0x3f, r0	; 63
    14fa:	cd bf       	out	0x3d, r28	; 61
    14fc:	ed 01       	movw	r28, r26
    14fe:	08 95       	ret

00001500 <_exit>:
    1500:	f8 94       	cli

00001502 <__stop_program>:
    1502:	ff cf       	rjmp	.-2      	; 0x1502 <__stop_program>
